(dp1
S'output'
p2
S'<class \'pymysql.err.ProgrammingError\'> (1146, u"Table \'ipos.data_source\' doesn\'t exist")'
p3
sS'layer'
p4
S'/Users/Brandon/Develop/ipo_web2py/applications/ipos/controllers/default.py'
p5
sS'code'
p6
S'# -*- coding: utf-8 -*-\n# this file is released under public domain and you can use without limitations\n\n# -------------------------------------------------------------------------\n# This is a sample controller\n# - index is the default action of any application\n# - user is required for authentication and authorization\n# - download is for downloading files uploaded in the db (does streaming)\n# -------------------------------------------------------------------------\n\nfrom IpoFetcher import IpoFetcher\nfrom CompanyInformationFetcher import CompanyInformationFetcher\nfrom DataMatcher import DataMatcher\nfrom Enums import DataSourceTypes\nfrom datetime import datetime, timedelta, date\n\nimport json\nimport os\n\nno_input_text = "123__NO_INPUT_TEXT__123"\n\ndef index():\n    redirect(URL(\'matcher\'))\n\ndef matcher():\n    text_input = None\n\n    match_all=False\n    if request.vars.has_key(\'match_all\') and request.vars[\'match_all\'] == "true":\n        match_all = True\n\n    if request.vars.has_key(\'keyWords\') and request.vars[\'keyWords\']:\n        text_input = request.vars[\'keyWords\']\n    else:\n        filepath = os.path.join(request.folder, \'uploads\', \'keyWords.txt\')\n        with open(filepath, \'r\') as text_input_file:\n            text_input = text_input_file.read()\n\n    time_to_expire = 60*60*24 #cache daily\n    ipos = cache.disk(\'ipos\', lambda: IpoFetcher().ipos, time_expire=time_to_expire)   \n    saveIpoAndCompanyData(ipos)\n    companyData = cache.disk(\'companies\', lambda: CompanyInformationFetcher(ipos).companies, time_expire=time_to_expire)    \n    matches = DataMatcher(text_input,match_all,companyData).matches\n\n    groups=[("This Week", "this_week"),("Next Week","next_week"),("Future","future")]\n    return dict(message=T(\'IPO Matcher\'),matches=matches,groups=groups,text_area_input=text_input)\n\ndef getThisWeekRange():\n    dt = date.today()\n    daysFromMonday = timedelta(days=dt.weekday())\n    start = dt - daysFromMonday\n    end = start + timedelta(days=6)\n    return (start,end)\ndef getNextWeekRange():\n    dt = date.today()\n    daysFromMonday = timedelta(days=dt.weekday())\n    start = dt - daysFromMonday + timedelta(days=7)\n    end = start + timedelta(days=6)\n    return (start,end)\n\n# def getIpos():\n#     this_week = getThisWeekRange()\n#     iposDataFromSource = db(db.data_source.date >= this_week[0] and db.data_source.date <= this_week[0] \n#         and db.data_source.type ==\'IPO_INFO\' and db.company_info.id == db.ipo_info.company_info_id).select()\n#     if iposFromDataSource:\n#         ipos = createUsableIpos(iposFromDataSource)\n#     else:\n#         ipos = IpoFetcher().ipos\n#         saveIpos(ipos)\n#     return ipos\n\n# def createUsableIpos(iposFromDb):\n#     #Get source_id, company_id, date, date_week, intended ticker, intended exchange, broker\n#     #need {group:[()]}\n#     ipos = {}\n#     for rows in iposFromDb:\n\n# def getIpos():\n#     this_week = getThisWeekRange()\n#     this_week_ipo_info()\n\n\n\ndef createNewDataSource(source, type):\n    return db.data_source.insert(source=source,type=type,datetime=datetime.today())\n\ndef getDateWeekFromGroup(group):\n    if group == "future":\n        return "future"\n    elif group == "this_week":\n        return str(getThisWeekRange()[0])\n    elif group == "next_week":\n        return str(getNextWeekRange()[0])\n    return None;\n\n\ndef saveIpoAndCompanyData(ipos):\n    data_source_id = createNewDataSource("MarketWatch",[DataSourceTypes.IPO, DataSourceTypes.COMPANY])\n    this_week_range = getThisWeekRange()\n    next_week_range = getNextWeekRange()\n    for group in ipos.keys():\n        date_week = getDateWeekFromGroup(group)\n        for company in ipos[group]:\n            company_name = company[0]\n            company_ticker = company[1]\n            companyInDb = db(db.company_info.name==company_name).select().first()\n            if not companyInDb: #if company doesn\'t exist, create it\n                company_id = db.company_info.insert(name=company_name,data_source_id=data_source_id)\n            else:\n                company_id = companyInDb.id\n            ipoInDb = db(db.ipo_info.company_id ==company_id).select().first()\n            if not ipoInDb: #Save new IPO\n                db.ipo_info.insert(company_id=company_id,data_source_id=data_source_id,\n                    date_week=date_week,intended_ticker=company_ticker)\n            else: #Update IPO info \n                ipoInDb.update_record(data_source_id=data_source_id,date_week=date_week,intended_ticker=company_ticker)\n\n\n\ndef submit_keyword_input():\n    variables={}\n    if request.vars.post_form == "submit":\n        variables[\'keyWords\'] = request.vars.text_input\n    elif request.vars.post_form =="match_all":\n        variables[\'match_all\'] = "true"\n    redirect(URL(\'matcher\',vars=variables))\n\n\n@cache.action()\ndef download():\n    """\n    allows downloading of uploaded files\n    http://..../[app]/default/download/[filename]\n    """\n    return response.download(request, db)\n\n\ndef call():\n    """\n    exposes services. for example:\n    http://..../[app]/default/call/jsonrpc\n    decorate with @services.jsonrpc the functions to expose\n    supports xml, json, xmlrpc, jsonrpc, amfrpc, rss, csv\n    """\n    return service()\n\n\n\nresponse._vars=response._caller(matcher)\n'
p7
sS'snapshot'
p8
(dp9
S'exception'
p10
(dp11
S'__module__'
p12
S"'pymysql.err'"
p13
sS'__getslice__'
p14
S"<method-wrapper '__getslice__' of ProgrammingError object>"
p15
sS'__str__'
p16
S"<method-wrapper '__str__' of ProgrammingError object>"
p17
sS'__reduce__'
p18
S'<built-in method __reduce__ of ProgrammingError object>'
p19
sS'__dict__'
p20
S'{}'
p21
sS'__sizeof__'
p22
S'<built-in method __sizeof__ of ProgrammingError object>'
p23
sS'__weakref__'
p24
S'None'
p25
sS'__init__'
p26
S"<method-wrapper '__init__' of ProgrammingError object>"
p27
sS'__setattr__'
p28
S"<method-wrapper '__setattr__' of ProgrammingError object>"
p29
sS'__reduce_ex__'
p30
S'<built-in method __reduce_ex__ of ProgrammingError object>'
p31
sS'__new__'
p32
S'<built-in method __new__ of type object>'
p33
sS'__format__'
p34
S'<built-in method __format__ of ProgrammingError object>'
p35
sS'__class__'
p36
S"<class 'pymysql.err.ProgrammingError'>"
p37
sS'__doc__'
p38
S"'Exception raised for programming errors, e.g. ta...t, wrong number\\n    of parameters specified, etc.'"
p39
sS'__getitem__'
p40
S"<method-wrapper '__getitem__' of ProgrammingError object>"
p41
sS'__setstate__'
p42
S'<built-in method __setstate__ of ProgrammingError object>'
p43
sS'__getattribute__'
p44
S"<method-wrapper '__getattribute__' of ProgrammingError object>"
p45
sS'args'
p46
S'(1146, u"Table \'ipos.data_source\' doesn\'t exist")'
p47
sS'__subclasshook__'
p48
S'<built-in method __subclasshook__ of type object>'
p49
sS'__unicode__'
p50
S'<built-in method __unicode__ of ProgrammingError object>'
p51
sS'__delattr__'
p52
S"<method-wrapper '__delattr__' of ProgrammingError object>"
p53
sS'__repr__'
p54
S"<method-wrapper '__repr__' of ProgrammingError object>"
p55
sS'__hash__'
p56
S"<method-wrapper '__hash__' of ProgrammingError object>"
p57
ssS'evalue'
p58
S'(1146, u"Table \'ipos.data_source\' doesn\'t exist")'
p59
sS'request'
p60
cgluon.html
XML_unpickle
p61
(S's\xcbZ\x00\x00<div><table><tr><td style="font-weight:bold;vertical-align:top;">ajax</td><td style="vertical-align:top;">:</td><td><div>False</div></td></tr><tr><td style="font-weight:bold;vertical-align:top;">application</td><td style="vertical-align:top;">:</td><td><div>ipos</div></td></tr><tr><td style="font-weight:bold;vertical-align:top;">args</td><td style="vertical-align:top;">:</td><td><div><table></table></div></td></tr><tr><td style="font-weight:bold;vertical-align:top;">cid</td><td style="vertical-align:top;">:</td><td><div>None</div></td></tr><tr><td style="font-weight:bold;vertical-align:top;">client</td><td style="vertical-align:top;">:</td><td><div>127.0.0.1</div></td></tr><tr><td style="font-weight:bold;vertical-align:top;">controller</td><td style="vertical-align:top;">:</td><td><div>default</div></td></tr><tr><td style="font-weight:bold;vertical-align:top;">cookies</td><td style="vertical-align:top;">:</td><td><div><table><tr><td style="font-weight:bold;vertical-align:top;">session_id_admin</td><td style="vertical-align:top;">:</td><td><div>127.0.0.1-beeec638-7b68-46fd-8490-21d1c7a447ad<table><tr><td style="font-weight:bold;vertical-align:top;">comment</td><td style="vertical-align:top;">:</td><td><div></div></td></tr><tr><td style="font-weight:bold;vertical-align:top;">domain</td><td style="vertical-align:top;">:</td><td><div></div></td></tr><tr><td style="font-weight:bold;vertical-align:top;">expires</td><td style="vertical-align:top;">:</td><td><div></div></td></tr><tr><td style="font-weight:bold;vertical-align:top;">httponly</td><td style="vertical-align:top;">:</td><td><div></div></td></tr><tr><td style="font-weight:bold;vertical-align:top;">max-age</td><td style="vertical-align:top;">:</td><td><div></div></td></tr><tr><td style="font-weight:bold;vertical-align:top;">path</td><td style="vertical-align:top;">:</td><td><div></div></td></tr><tr><td style="font-weight:bold;vertical-align:top;">secure</td><td style="vertical-align:top;">:</td><td><div></div></td></tr><tr><td style="font-weight:bold;vertical-align:top;">version</td><td style="vertical-align:top;">:</td><td><div></div></td></tr></table></div></td></tr><tr><td style="font-weight:bold;vertical-align:top;">session_id_ipos</td><td style="vertical-align:top;">:</td><td><div>127.0.0.1-418b053d-c3d1-446b-8290-60ee37153d88<table><tr><td style="font-weight:bold;vertical-align:top;">comment</td><td style="vertical-align:top;">:</td><td><div></div></td></tr><tr><td style="font-weight:bold;vertical-align:top;">domain</td><td style="vertical-align:top;">:</td><td><div></div></td></tr><tr><td style="font-weight:bold;vertical-align:top;">expires</td><td style="vertical-align:top;">:</td><td><div></div></td></tr><tr><td style="font-weight:bold;vertical-align:top;">httponly</td><td style="vertical-align:top;">:</td><td><div></div></td></tr><tr><td style="font-weight:bold;vertical-align:top;">max-age</td><td style="vertical-align:top;">:</td><td><div></div></td></tr><tr><td style="font-weight:bold;vertical-align:top;">path</td><td style="vertical-align:top;">:</td><td><div></div></td></tr><tr><td style="font-weight:bold;vertical-align:top;">secure</td><td style="vertical-align:top;">:</td><td><div></div></td></tr><tr><td style="font-weight:bold;vertical-align:top;">version</td><td style="vertical-align:top;">:</td><td><div></div></td></tr></table></div></td></tr><tr><td style="font-weight:bold;vertical-align:top;">session_id_welcome</td><td style="vertical-align:top;">:</td><td><div>127.0.0.1-56a76cfa-0460-4a68-8881-22da4a2887ab<table><tr><td style="font-weight:bold;vertical-align:top;">comment</td><td style="vertical-align:top;">:</td><td><div></div></td></tr><tr><td style="font-weight:bold;vertical-align:top;">domain</td><td style="vertical-align:top;">:</td><td><div></div></td></tr><tr><td style="font-weight:bold;vertical-align:top;">expires</td><td style="vertical-align:top;">:</td><td><div></div></td></tr><tr><td style="font-weight:bold;vertical-align:top;">httponly</td><td style="vertical-align:top;">:</td><td><div></div></td></tr><tr><td style="font-weight:bold;vertical-align:top;">max-age</td><td style="vertical-align:top;">:</td><td><div></div></td></tr><tr><td style="font-weight:bold;vertical-align:top;">path</td><td style="vertical-align:top;">:</td><td><div></div></td></tr><tr><td style="font-weight:bold;vertical-align:top;">secure</td><td style="vertical-align:top;">:</td><td><div></div></td></tr><tr><td style="font-weight:bold;vertical-align:top;">version</td><td style="vertical-align:top;">:</td><td><div></div></td></tr></table></div></td></tr></table></div></td></tr><tr><td style="font-weight:bold;vertical-align:top;">env</td><td style="vertical-align:top;">:</td><td><div><table><tr><td style="font-weight:bold;vertical-align:top;">HTTP_ACCEPT</td><td style="vertical-align:top;">:</td><td><div>text/html,application/xhtml+xml,application/xml;q=0.9,image/webp,*/*;q=0.8</div></td></tr><tr><td style="font-weight:bold;vertical-align:top;">HTTP_ACCEPT_ENCODING</td><td style="vertical-align:top;">:</td><td><div>gzip, deflate, sdch, br</div></td></tr><tr><td style="font-weight:bold;vertical-align:top;">HTTP_ACCEPT_LANGUAGE</td><td style="vertical-align:top;">:</td><td><div>en-US,en;q=0.8</div></td></tr><tr><td style="font-weight:bold;vertical-align:top;">HTTP_CONNECTION</td><td style="vertical-align:top;">:</td><td><div>keep-alive</div></td></tr><tr><td style="font-weight:bold;vertical-align:top;">HTTP_COOKIE</td><td style="vertical-align:top;">:</td><td><div>session_id_welcome=127.0.0.1-56a76cfa-0460-4a68-8881-22da4a2887ab; _ga=GA1.1.1005005347.1493353778; session_id_admin=127.0.0.1-beeec638-7b68-46fd-8490-21d1c7a447ad; session_id_ipos=127.0.0.1-418b053d-c3d1-446b-8290-60ee37153d88</div></td></tr><tr><td style="font-weight:bold;vertical-align:top;">HTTP_HOST</td><td style="vertical-align:top;">:</td><td><div>127.0.0.1:8000</div></td></tr><tr><td style="font-weight:bold;vertical-align:top;">HTTP_UPGRADE_INSECURE_REQUESTS</td><td style="vertical-align:top;">:</td><td><div>1</div></td></tr><tr><td style="font-weight:bold;vertical-align:top;">HTTP_USER_AGENT</td><td style="vertical-align:top;">:</td><td><div>Mozilla/5.0 (Macintosh; Intel Mac OS X 10_12_1) AppleWebKit/537.36 (KHTML, like Gecko) Chrome/57.0.2987.133 Safari/537.36</div></td></tr><tr><td style="font-weight:bold;vertical-align:top;">PATH_INFO</td><td style="vertical-align:top;">:</td><td><div>/matcher</div></td></tr><tr><td style="font-weight:bold;vertical-align:top;">QUERY_STRING</td><td style="vertical-align:top;">:</td><td><div></div></td></tr><tr><td style="font-weight:bold;vertical-align:top;">REMOTE_ADDR</td><td style="vertical-align:top;">:</td><td><div>127.0.0.1</div></td></tr><tr><td style="font-weight:bold;vertical-align:top;">REMOTE_PORT</td><td style="vertical-align:top;">:</td><td><div>63920</div></td></tr><tr><td style="font-weight:bold;vertical-align:top;">REQUEST_METHOD</td><td style="vertical-align:top;">:</td><td><div>GET</div></td></tr><tr><td style="font-weight:bold;vertical-align:top;">SCRIPT_NAME</td><td style="vertical-align:top;">:</td><td><div></div></td></tr><tr><td style="font-weight:bold;vertical-align:top;">SERVER_NAME</td><td style="vertical-align:top;">:</td><td><div>Brandons-MacBook-Pro-10.local</div></td></tr><tr><td style="font-weight:bold;vertical-align:top;">SERVER_PORT</td><td style="vertical-align:top;">:</td><td><div>8000</div></td></tr><tr><td style="font-weight:bold;vertical-align:top;">SERVER_PROTOCOL</td><td style="vertical-align:top;">:</td><td><div>HTTP/1.1</div></td></tr><tr><td style="font-weight:bold;vertical-align:top;">SERVER_SOFTWARE</td><td style="vertical-align:top;">:</td><td><div>Rocket 1.2.6</div></td></tr><tr><td style="font-weight:bold;vertical-align:top;">app_folders</td><td style="vertical-align:top;">:</td><td><div>set([&#x27;/Users/Brandon/Develop/ipo_web2py/applications/ipos/&#x27;])</div></td></tr><tr><td style="font-weight:bold;vertical-align:top;">applications_parent</td><td style="vertical-align:top;">:</td><td><div>/Users/Brandon/Develop/ipo_web2py</div></td></tr><tr><td style="font-weight:bold;vertical-align:top;">cmd_args</td><td style="vertical-align:top;">:</td><td><div><table></table></div></td></tr><tr><td style="font-weight:bold;vertical-align:top;">cmd_options</td><td style="vertical-align:top;">:</td><td><div>&lt;Values at 0x106b84cf8: {&#x27;verbose&#x27;: False, &#x27;ip&#x27;: &#x27;127.0.0.1&#x27;, &#x27;debuglevel&#x27;: 30, &#x27;with_scheduler&#x27;: False, &#x27;shutdown_timeout&#x27;: 5, &#x27;taskbar&#x27;: False, &#x27;with_coverage&#x27;: False, &#x27;pid_filename&#x27;: &#x27;httpserver.pid&#x27;, &#x27;maxthreads&#x27;: None, &#x27;softcron&#x27;: False, &#x27;server_name&#x27;: &#x27;Brandons-MacBook-Pro-10.local&#x27;, &#x27;bpython&#x27;: False, &#x27;nogui&#x27;: False, &#x27;port&#x27;: 8000, &#x27;print_errors&#x27;: False, &#x27;extcron&#x27;: False, &#x27;runcron&#x27;: False, &#x27;run_system_tests&#x27;: False, &#x27;test&#x27;: None, &#x27;folder&#x27;: &#x27;/Users/Brandon/Develop/ipo_web2py&#x27;, &#x27;config&#x27;: &#x27;&#x27;, &#x27;minthreads&#x27;: None, &#x27;shell&#x27;: None, &#x27;run&#x27;: &#x27;&#x27;, &#x27;log_filename&#x27;: &#x27;httpserver.log&#x27;, &#x27;profiler_dir&#x27;: None, &#x27;args&#x27;: [&#x27;&#x27;], &#x27;socket_timeout&#x27;: 5, &#x27;ssl_ca_certificate&#x27;: None, &#x27;scheduler&#x27;: None, &#x27;interfaces&#x27;: None, &#x27;ssl_private_key&#x27;: &#x27;&#x27;, &#x27;gae&#x27;: None, &#x27;password&#x27;: &#x27;******&#x27;, &#x27;request_queue_size&#x27;: 5, &#x27;ssl_certificate&#x27;: &#x27;&#x27;, &#x27;cronjob&#x27;: False, &#x27;numthreads&#x27;: None, &#x27;quiet&#x27;: False, &#x27;import_models&#x27;: False, &#x27;timeout&#x27;: 10, &#x27;plain&#x27;: False, &#x27;nobanner&#x27;: False}&gt;</div></td></tr><tr><td style="font-weight:bold;vertical-align:top;">db_sessions</td><td style="vertical-align:top;">:</td><td><div>set([])</div></td></tr><tr><td style="font-weight:bold;vertical-align:top;">debugging</td><td style="vertical-align:top;">:</td><td><div>False</div></td></tr><tr><td style="font-weight:bold;vertical-align:top;">gluon_parent</td><td style="vertical-align:top;">:</td><td><div>/Users/Brandon/Develop/ipo_web2py</div></td></tr><tr><td style="font-weight:bold;vertical-align:top;">http_accept</td><td style="vertical-align:top;">:</td><td><div>text/html,application/xhtml+xml,application/xml;q=0.9,image/webp,*/*;q=0.8</div></td></tr><tr><td style="font-weight:bold;vertical-align:top;">http_accept_encoding</td><td style="vertical-align:top;">:</td><td><div>gzip, deflate, sdch, br</div></td></tr><tr><td style="font-weight:bold;vertical-align:top;">http_accept_language</td><td style="vertical-align:top;">:</td><td><div>en-US,en;q=0.8</div></td></tr><tr><td style="font-weight:bold;vertical-align:top;">http_connection</td><td style="vertical-align:top;">:</td><td><div>keep-alive</div></td></tr><tr><td style="font-weight:bold;vertical-align:top;">http_cookie</td><td style="vertical-align:top;">:</td><td><div>session_id_welcome=127.0.0.1-56a76cfa-0460-4a68-8881-22da4a2887ab; _ga=GA1.1.1005005347.1493353778; session_id_admin=127.0.0.1-beeec638-7b68-46fd-8490-21d1c7a447ad; session_id_ipos=127.0.0.1-418b053d-c3d1-446b-8290-60ee37153d88</div></td></tr><tr><td style="font-weight:bold;vertical-align:top;">http_host</td><td style="vertical-align:top;">:</td><td><div>127.0.0.1:8000</div></td></tr><tr><td style="font-weight:bold;vertical-align:top;">http_upgrade_insecure_requests</td><td style="vertical-align:top;">:</td><td><div>1</div></td></tr><tr><td style="font-weight:bold;vertical-align:top;">http_user_agent</td><td style="vertical-align:top;">:</td><td><div>Mozilla/5.0 (Macintosh; Intel Mac OS X 10_12_1) AppleWebKit/537.36 (KHTML, like Gecko) Chrome/57.0.2987.133 Safari/537.36</div></td></tr><tr><td style="font-weight:bold;vertical-align:top;">is_jython</td><td style="vertical-align:top;">:</td><td><div>False</div></td></tr><tr><td style="font-weight:bold;vertical-align:top;">is_pypy</td><td style="vertical-align:top;">:</td><td><div>False</div></td></tr><tr><td style="font-weight:bold;vertical-align:top;">is_source</td><td style="vertical-align:top;">:</td><td><div>True</div></td></tr><tr><td style="font-weight:bold;vertical-align:top;">local_hosts</td><td style="vertical-align:top;">:</td><td><div><table><tr><td><div>fe80::1cbc:dfe5:de55:c354%en0</div></td></tr><tr><td><div>Brandons-MacBook-Pro-10.local</div></td></tr><tr><td><div>::ffff:127.0.0.1</div></td></tr><tr><td><div>::1</div></td></tr><tr><td><div>10.0.1.14</div></td></tr><tr><td><div>2604:5500:34:34fe:1475:cb72:68a:2a70</div></td></tr><tr><td><div>brandons-macbook-pro-10.local</div></td></tr><tr><td><div>127.0.0.1</div></td></tr></table></div></td></tr><tr><td style="font-weight:bold;vertical-align:top;">path_info</td><td style="vertical-align:top;">:</td><td><div>/matcher</div></td></tr><tr><td style="font-weight:bold;vertical-align:top;">query_string</td><td style="vertical-align:top;">:</td><td><div></div></td></tr><tr><td style="font-weight:bold;vertical-align:top;">remote_addr</td><td style="vertical-align:top;">:</td><td><div>127.0.0.1</div></td></tr><tr><td style="font-weight:bold;vertical-align:top;">remote_port</td><td style="vertical-align:top;">:</td><td><div>63920</div></td></tr><tr><td style="font-weight:bold;vertical-align:top;">request_method</td><td style="vertical-align:top;">:</td><td><div>GET</div></td></tr><tr><td style="font-weight:bold;vertical-align:top;">request_uri</td><td style="vertical-align:top;">:</td><td><div>/ipos/default/matcher</div></td></tr><tr><td style="font-weight:bold;vertical-align:top;">script_name</td><td style="vertical-align:top;">:</td><td><div></div></td></tr><tr><td style="font-weight:bold;vertical-align:top;">server_name</td><td style="vertical-align:top;">:</td><td><div>Brandons-MacBook-Pro-10.local</div></td></tr><tr><td style="font-weight:bold;vertical-align:top;">server_port</td><td style="vertical-align:top;">:</td><td><div>8000</div></td></tr><tr><td style="font-weight:bold;vertical-align:top;">server_protocol</td><td style="vertical-align:top;">:</td><td><div>HTTP/1.1</div></td></tr><tr><td style="font-weight:bold;vertical-align:top;">server_software</td><td style="vertical-align:top;">:</td><td><div>Rocket 1.2.6</div></td></tr><tr><td style="font-weight:bold;vertical-align:top;">web2py_original_uri</td><td style="vertical-align:top;">:</td><td><div>/matcher</div></td></tr><tr><td style="font-weight:bold;vertical-align:top;">web2py_path</td><td style="vertical-align:top;">:</td><td><div>/Users/Brandon/Develop/ipo_web2py</div></td></tr><tr><td style="font-weight:bold;vertical-align:top;">web2py_version</td><td style="vertical-align:top;">:</td><td><div>2.14.6-stable+timestamp.2016.05.10.00.21.47</div></td></tr><tr><td style="font-weight:bold;vertical-align:top;">wsgi.errors</td><td style="vertical-align:top;">:</td><td><div>&lt;open file &#x27;&lt;stderr&gt;&#x27;, mode &#x27;w&#x27; at 0x10028f1e0&gt;</div></td></tr><tr><td style="font-weight:bold;vertical-align:top;">wsgi.file_wrapper</td><td style="vertical-align:top;">:</td><td><div>&lt;class wsgiref.util.FileWrapper at 0x10656b598&gt;</div></td></tr><tr><td style="font-weight:bold;vertical-align:top;">wsgi.input</td><td style="vertical-align:top;">:</td><td><div>&lt;socket._fileobject object at 0x10f2adf50&gt;</div></td></tr><tr><td style="font-weight:bold;vertical-align:top;">wsgi.multiprocess</td><td style="vertical-align:top;">:</td><td><div>False</div></td></tr><tr><td style="font-weight:bold;vertical-align:top;">wsgi.multithread</td><td style="vertical-align:top;">:</td><td><div>True</div></td></tr><tr><td style="font-weight:bold;vertical-align:top;">wsgi.run_once</td><td style="vertical-align:top;">:</td><td><div>False</div></td></tr><tr><td style="font-weight:bold;vertical-align:top;">wsgi.url_scheme</td><td style="vertical-align:top;">:</td><td><div>http</div></td></tr><tr><td style="font-weight:bold;vertical-align:top;">wsgi.version</td><td style="vertical-align:top;">:</td><td><div><table><tr><td><div>1</div></td></tr><tr><td><div>0</div></td></tr></table></div></td></tr><tr><td style="font-weight:bold;vertical-align:top;">wsgi_errors</td><td style="vertical-align:top;">:</td><td><div>&lt;open file &#x27;&lt;stderr&gt;&#x27;, mode &#x27;w&#x27; at 0x10028f1e0&gt;</div></td></tr><tr><td style="font-weight:bold;vertical-align:top;">wsgi_file_wrapper</td><td style="vertical-align:top;">:</td><td><div>&lt;class wsgiref.util.FileWrapper at 0x10656b598&gt;</div></td></tr><tr><td style="font-weight:bold;vertical-align:top;">wsgi_input</td><td style="vertical-align:top;">:</td><td><div>&lt;socket._fileobject object at 0x10f2adf50&gt;</div></td></tr><tr><td style="font-weight:bold;vertical-align:top;">wsgi_multiprocess</td><td style="vertical-align:top;">:</td><td><div>False</div></td></tr><tr><td style="font-weight:bold;vertical-align:top;">wsgi_multithread</td><td style="vertical-align:top;">:</td><td><div>True</div></td></tr><tr><td style="font-weight:bold;vertical-align:top;">wsgi_run_once</td><td style="vertical-align:top;">:</td><td><div>False</div></td></tr><tr><td style="font-weight:bold;vertical-align:top;">wsgi_url_scheme</td><td style="vertical-align:top;">:</td><td><div>http</div></td></tr><tr><td style="font-weight:bold;vertical-align:top;">wsgi_version</td><td style="vertical-align:top;">:</td><td><div><table><tr><td><div>1</div></td></tr><tr><td><div>0</div></td></tr></table></div></td></tr></table></div></td></tr><tr><td style="font-weight:bold;vertical-align:top;">extension</td><td style="vertical-align:top;">:</td><td><div>html</div></td></tr><tr><td style="font-weight:bold;vertical-align:top;">folder</td><td style="vertical-align:top;">:</td><td><div>/Users/Brandon/Develop/ipo_web2py/applications/ipos/</div></td></tr><tr><td style="font-weight:bold;vertical-align:top;">function</td><td style="vertical-align:top;">:</td><td><div>matcher</div></td></tr><tr><td style="font-weight:bold;vertical-align:top;">global_settings</td><td style="vertical-align:top;">:</td><td><div><table><tr><td style="font-weight:bold;vertical-align:top;">app_folders</td><td style="vertical-align:top;">:</td><td><div>set([&#x27;/Users/Brandon/Develop/ipo_web2py/applications/ipos/&#x27;])</div></td></tr><tr><td style="font-weight:bold;vertical-align:top;">applications_parent</td><td style="vertical-align:top;">:</td><td><div>/Users/Brandon/Develop/ipo_web2py</div></td></tr><tr><td style="font-weight:bold;vertical-align:top;">cmd_args</td><td style="vertical-align:top;">:</td><td><div><table></table></div></td></tr><tr><td style="font-weight:bold;vertical-align:top;">cmd_options</td><td style="vertical-align:top;">:</td><td><div>&lt;Values at 0x106b84cf8: {&#x27;verbose&#x27;: False, &#x27;ip&#x27;: &#x27;127.0.0.1&#x27;, &#x27;debuglevel&#x27;: 30, &#x27;with_scheduler&#x27;: False, &#x27;shutdown_timeout&#x27;: 5, &#x27;taskbar&#x27;: False, &#x27;with_coverage&#x27;: False, &#x27;pid_filename&#x27;: &#x27;httpserver.pid&#x27;, &#x27;maxthreads&#x27;: None, &#x27;softcron&#x27;: False, &#x27;server_name&#x27;: &#x27;Brandons-MacBook-Pro-10.local&#x27;, &#x27;bpython&#x27;: False, &#x27;nogui&#x27;: False, &#x27;port&#x27;: 8000, &#x27;print_errors&#x27;: False, &#x27;extcron&#x27;: False, &#x27;runcron&#x27;: False, &#x27;run_system_tests&#x27;: False, &#x27;test&#x27;: None, &#x27;folder&#x27;: &#x27;/Users/Brandon/Develop/ipo_web2py&#x27;, &#x27;config&#x27;: &#x27;&#x27;, &#x27;minthreads&#x27;: None, &#x27;shell&#x27;: None, &#x27;run&#x27;: &#x27;&#x27;, &#x27;log_filename&#x27;: &#x27;httpserver.log&#x27;, &#x27;profiler_dir&#x27;: None, &#x27;args&#x27;: [&#x27;&#x27;], &#x27;socket_timeout&#x27;: 5, &#x27;ssl_ca_certificate&#x27;: None, &#x27;scheduler&#x27;: None, &#x27;interfaces&#x27;: None, &#x27;ssl_private_key&#x27;: &#x27;&#x27;, &#x27;gae&#x27;: None, &#x27;password&#x27;: &#x27;******&#x27;, &#x27;request_queue_size&#x27;: 5, &#x27;ssl_certificate&#x27;: &#x27;&#x27;, &#x27;cronjob&#x27;: False, &#x27;numthreads&#x27;: None, &#x27;quiet&#x27;: False, &#x27;import_models&#x27;: False, &#x27;timeout&#x27;: 10, &#x27;plain&#x27;: False, &#x27;nobanner&#x27;: False}&gt;</div></td></tr><tr><td style="font-weight:bold;vertical-align:top;">db_sessions</td><td style="vertical-align:top;">:</td><td><div>set([])</div></td></tr><tr><td style="font-weight:bold;vertical-align:top;">debugging</td><td style="vertical-align:top;">:</td><td><div>False</div></td></tr><tr><td style="font-weight:bold;vertical-align:top;">gluon_parent</td><td style="vertical-align:top;">:</td><td><div>/Users/Brandon/Develop/ipo_web2py</div></td></tr><tr><td style="font-weight:bold;vertical-align:top;">is_jython</td><td style="vertical-align:top;">:</td><td><div>False</div></td></tr><tr><td style="font-weight:bold;vertical-align:top;">is_pypy</td><td style="vertical-align:top;">:</td><td><div>False</div></td></tr><tr><td style="font-weight:bold;vertical-align:top;">is_source</td><td style="vertical-align:top;">:</td><td><div>True</div></td></tr><tr><td style="font-weight:bold;vertical-align:top;">local_hosts</td><td style="vertical-align:top;">:</td><td><div><table><tr><td><div>fe80::1cbc:dfe5:de55:c354%en0</div></td></tr><tr><td><div>Brandons-MacBook-Pro-10.local</div></td></tr><tr><td><div>::ffff:127.0.0.1</div></td></tr><tr><td><div>::1</div></td></tr><tr><td><div>10.0.1.14</div></td></tr><tr><td><div>2604:5500:34:34fe:1475:cb72:68a:2a70</div></td></tr><tr><td><div>brandons-macbook-pro-10.local</div></td></tr><tr><td><div>127.0.0.1</div></td></tr></table></div></td></tr><tr><td style="font-weight:bold;vertical-align:top;">web2py_version</td><td style="vertical-align:top;">:</td><td><div>2.14.6-stable+timestamp.2016.05.10.00.21.47</div></td></tr></table></div></td></tr><tr><td style="font-weight:bold;vertical-align:top;">is_https</td><td style="vertical-align:top;">:</td><td><div>False</div></td></tr><tr><td style="font-weight:bold;vertical-align:top;">is_local</td><td style="vertical-align:top;">:</td><td><div>True</div></td></tr><tr><td style="font-weight:bold;vertical-align:top;">is_restful</td><td style="vertical-align:top;">:</td><td><div>False</div></td></tr><tr><td style="font-weight:bold;vertical-align:top;">is_scheduler</td><td style="vertical-align:top;">:</td><td><div>False</div></td></tr><tr><td style="font-weight:bold;vertical-align:top;">is_shell</td><td style="vertical-align:top;">:</td><td><div>False</div></td></tr><tr><td style="font-weight:bold;vertical-align:top;">now</td><td style="vertical-align:top;">:</td><td><div>datetime.datetime(2017, 4, 30, 20, 39, 36, 310652)</div></td></tr><tr><td style="font-weight:bold;vertical-align:top;">url</td><td style="vertical-align:top;">:</td><td><div>/matcher</div></td></tr><tr><td style="font-weight:bold;vertical-align:top;">utcnow</td><td style="vertical-align:top;">:</td><td><div>datetime.datetime(2017, 5, 1, 3, 39, 36, 310660)</div></td></tr><tr><td style="font-weight:bold;vertical-align:top;">wsgi</td><td style="vertical-align:top;">:</td><td><div>&lt;gluon.main.LazyWSGI object at 0x10f4666d0&gt;</div></td></tr></table></div>'
tRp62
sS'frames'
p63
(lp64
(dp65
S'file'
p66
S'/Users/Brandon/Develop/ipo_web2py/gluon/restricted.py'
p67
sS'dump'
p68
(dp69
S'environment'
p70
S"{'A': <class 'gluon.html.A'>, 'ANY_OF': <class 'gluon.validators.ANY_OF'>, 'ASSIGNJS': <function ASSIGNJS>, 'AppConfig': <function AppConfig>, 'B': <class 'gluon.html.B'>, 'BEAUTIFY': <class 'gluon.html.BEAUTIFY'>, 'BODY': <class 'gluon.html.BODY'>, 'BR': <class 'gluon.html.BR'>, 'BUTTON': <class 'gluon.html.BUTTON'>, 'CAT': <class 'gluon.html.CAT'>, ...}"
p71
sS'ccode'
p72
S'<code object <module> at 0x10f4673b0, file "/Use...plications/ipos/controllers/default.py", line 11>'
p73
ssS'lnum'
p74
I227
sS'lines'
p75
(dp76
I224
S'            ccode = code'
p77
sI225
S'        else:'
p78
sI226
S'            ccode = compile2(code, layer)'
p79
sI227
S'        exec ccode in environment'
p80
sI228
S'    except HTTP:'
p81
sI229
S'        raise'
p82
sI230
S'    except RestrictedError:'
p83
sI231
S'        # do not encapsulate (obfuscate) the original RestrictedError'
p84
sI222
S'    try:'
p85
sI223
S'        if isinstance(code, types.CodeType):'
p86
ssS'call'
p87
S"(code='# -*- coding: utf-8 -*-\\n# this file is released ...ce()\\n\\n\\n\\nresponse._vars=response._caller(matcher)\\n', environment={'A': <class 'gluon.html.A'>, 'ANY_OF': <class 'gluon.validators.ANY_OF'>, 'ASSIGNJS': <function ASSIGNJS>, 'AppConfig': <function AppConfig>, 'B': <class 'gluon.html.B'>, 'BEAUTIFY': <class 'gluon.html.BEAUTIFY'>, 'BODY': <class 'gluon.html.BODY'>, 'BR': <class 'gluon.html.BR'>, 'BUTTON': <class 'gluon.html.BUTTON'>, 'CAT': <class 'gluon.html.CAT'>, ...}, layer='/Users/Brandon/Develop/ipo_web2py/applications/ipos/controllers/default.py')"
p88
sS'func'
p89
S'restricted'
p90
sa(dp91
g66
S'/Users/Brandon/Develop/ipo_web2py/applications/ipos/controllers/default.py'
p92
sg68
(dp93
sg74
I149
sg75
(dp94
I138
S'def call():'
p95
sI139
S'    """'
p96
sI140
S'    exposes services. for example:'
p97
sI141
S'    http://..../[app]/default/call/jsonrpc'
p98
sI142
S'    decorate with @services.jsonrpc the functions to expose'
p99
sI143
S'    supports xml, json, xmlrpc, jsonrpc, amfrpc, rss, csv'
p100
sI144
S'    """'
p101
sI145
S'    return service()'
p102
sI146
S''
sI147
S''
ssg87
S'()'
p103
sg89
S'<module>'
p104
sa(dp105
g66
S'/Users/Brandon/Develop/ipo_web2py/gluon/globals.py'
p106
sg68
(dp107
S'self'
p108
S'undefined'
p109
sS'f'
S'<function matcher>'
p110
ssg74
I417
sg75
(dp111
I416
S'        self._vars = None'
p112
sI417
S'        self._caller = lambda f: f()'
p113
sI418
S'        self._view_environment = None'
p114
sI419
S'        self._custom_commit = None'
p115
sI420
S'        self._custom_rollback = None'
p116
sI421
S"        self.generic_patterns = ['*']"
p117
sI412
S"        self.flash = ''            # used by the default view layout"
p118
sI413
S'        self.meta = Storage()      # used by web2py_ajax.html'
p119
sI414
S'        self.menu = []             # used by the default view layout'
p120
sI415
S'        self.files = []            # used by web2py_ajax.html'
p121
ssg87
S'(f=<function matcher>)'
p122
sg89
S'<lambda>'
p123
sa(dp124
g66
S'/Users/Brandon/Develop/ipo_web2py/applications/ipos/controllers/default.py'
p125
sg68
(dp126
S'global saveIpoAndCompanyData'
p127
S'<function saveIpoAndCompanyData>'
p128
sS'ipos'
p129
S"{'future': [('Abengoa', 'ABGB'), ('Accelerated Pharma', 'ACCP'), ('Acucela', ''), ('Aina Le', ''), ('Akcea Therapeutics', 'AKCA'), ('Albea', 'ABEA'), ('Albertsons Companies', 'ABS'), ('Alion Science and Technology', 'ALON'), ('Altice USA', ''), ('Anterios', 'ANTE'), ('Appian', 'APPN'), ('Archstone', 'ASN'), ('argenx', 'ARGX'), ('ASV Holdings', 'ASV'), ('Avenue Therapeutics', 'ATXI'), ('BeneChill', 'BNCH'), ('Bicapital', 'BICA'), ('BioLight Life Sciences', 'BOLT'), ('BlackStratus', 'BLKS'), ('Boston Omaha Corporation', 'BOMN'), ...], 'next_week': [('Antero Midstream GP LP', 'AMGP'), ('Biohaven Pharmaceuticals Holding', 'BHVN'), ('KKR Real Estate Finance Trust', 'KREF'), ('Liberty Oilfield Services', 'BDFC'), ('Ovid Therapeutics', 'OVID'), ('UroGen Pharma', 'URGN')], 'this_week': []}"
p130
ssg74
I41
sg75
(dp131
I36
S"        with open(filepath, 'r') as text_input_file:"
p132
sI37
S'            text_input = text_input_file.read()'
p133
sI38
S''
sI39
S'    time_to_expire = 60*60*24 #cache daily'
p134
sI40
S"    ipos = cache.disk('ipos', lambda: IpoFetcher().ipos, time_expire=time_to_expire)"
p135
sI41
S'    saveIpoAndCompanyData(ipos)'
p136
sI42
S"    companyData = cache.disk('companies', lambda: CompanyInformationFetcher(ipos).companies, time_expire=time_to_expire)"
p137
sI43
S'    matches = DataMatcher(text_input,match_all,companyData).matches'
p138
sI44
S''
sI45
S'    groups=[("This Week", "this_week"),("Next Week","next_week"),("Future","future")]'
p139
ssg87
S'()'
p140
sg89
S'matcher'
p141
sa(dp142
g66
S'/Users/Brandon/Develop/ipo_web2py/applications/ipos/controllers/default.py'
p143
sg68
(dp144
S'DataSourceTypes.COMPANY'
p145
S'<DataSourceTypes.COMPANY: 1>'
p146
sS'DataSourceTypes.IPO'
p147
S'<DataSourceTypes.IPO: 2>'
p148
sS'global createNewDataSource'
p149
S'<function createNewDataSource>'
p150
sS'data_source_id'
p151
g109
sS'global DataSourceTypes'
p152
S"<enum 'DataSourceTypes'>"
p153
ssg74
I98
sg75
(dp154
I96
S''
sI97
S'def saveIpoAndCompanyData(ipos):'
p155
sI98
S'    data_source_id = createNewDataSource("MarketWatch",[DataSourceTypes.IPO, DataSourceTypes.COMPANY])'
p156
sI99
S'    this_week_range = getThisWeekRange()'
p157
sI100
S'    next_week_range = getNextWeekRange()'
p158
sI101
S'    for group in ipos.keys():'
p159
sI102
S'        date_week = getDateWeekFromGroup(group)'
p160
sI93
S'        return str(getNextWeekRange()[0])'
p161
sI94
S'    return None;'
p162
sI95
S''
ssg87
S"(ipos={'future': [('Abengoa', 'ABGB'), ('Accelerated Pharma', 'ACCP'), ('Acucela', ''), ('Aina Le', ''), ('Akcea Therapeutics', 'AKCA'), ('Albea', 'ABEA'), ('Albertsons Companies', 'ABS'), ('Alion Science and Technology', 'ALON'), ('Altice USA', ''), ('Anterios', 'ANTE'), ('Appian', 'APPN'), ('Archstone', 'ASN'), ('argenx', 'ARGX'), ('ASV Holdings', 'ASV'), ('Avenue Therapeutics', 'ATXI'), ('BeneChill', 'BNCH'), ('Bicapital', 'BICA'), ('BioLight Life Sciences', 'BOLT'), ('BlackStratus', 'BLKS'), ('Boston Omaha Corporation', 'BOMN'), ...], 'next_week': [('Antero Midstream GP LP', 'AMGP'), ('Biohaven Pharmaceuticals Holding', 'BHVN'), ('KKR Real Estate Finance Trust', 'KREF'), ('Liberty Oilfield Services', 'BDFC'), ('Ovid Therapeutics', 'OVID'), ('UroGen Pharma', 'URGN')], 'this_week': []})"
p163
sg89
S'saveIpoAndCompanyData'
p164
sa(dp165
g66
S'/Users/Brandon/Develop/ipo_web2py/applications/ipos/controllers/default.py'
p166
sg68
(dp167
S'db.data_source.insert'
p168
S'<bound method Table.insert of <Table data_source (id, source, datetime, type)>>'
p169
sS'global datetime'
p170
S"<type 'datetime.datetime'>"
p171
sS'datetime.today'
p172
S'<built-in method today of type object>'
p173
sS'source'
p174
S"'MarketWatch'"
p175
sS'global db'
p176
S'<DAL uri="mysql:******@localhost/IPOS">'
p177
sS'db.data_source'
p178
S'<Table data_source (id, source, datetime, type)>'
p179
sS'type'
p180
S'[<DataSourceTypes.IPO: 2>, <DataSourceTypes.COMPANY: 1>]'
p181
ssg74
I85
sg75
(dp182
I80
S'#     this_week_ipo_info()'
p183
sI81
S''
sI82
S''
sI83
S''
sI84
S'def createNewDataSource(source, type):'
p184
sI85
S'    return db.data_source.insert(source=source,type=type,datetime=datetime.today())'
p185
sI86
S''
sI87
S'def getDateWeekFromGroup(group):'
p186
sI88
S'    if group == "future":'
p187
sI89
S'        return "future"'
p188
ssg87
S"(source='MarketWatch', type=[<DataSourceTypes.IPO: 2>, <DataSourceTypes.COMPANY: 1>])"
p189
sg89
S'createNewDataSource'
p190
sa(dp191
g66
S'/Users/Brandon/Develop/ipo_web2py/gluon/packages/dal/pydal/base.py'
p192
sg68
(dp193
S'fields'
p194
S'(<pydal.objects.Field object>, <pydal.objects.Field object>, <pydal.objects.Field object>)'
p195
sS'self'
p196
S'<DAL uri="mysql:******@localhost/IPOS">'
p197
sS'self.lazy_define_table'
p198
S'<bound method DAL.lazy_define_table of <DAL uri="mysql:******@localhost/IPOS">>'
p199
sS'tablename'
p200
S"'data_source'"
p201
sS'args'
p202
g21
ssg74
I920
sg75
(dp203
I915
S''
sI916
S'    def __getattr__(self, key):'
p204
sI917
S"        if object.__getattribute__(self, '_lazy_tables') and \\"
p205
sI918
S"                key in object.__getattribute__(self, '_LAZY_TABLES'):"
p206
sI919
S'            tablename, fields, args = self._LAZY_TABLES.pop(key)'
p207
sI920
S'            return self.lazy_define_table(tablename, *fields, **args)'
p208
sI921
S'        return BasicStorage.__getattribute__(self, key)'
p209
sI922
S''
sI923
S'    def __setattr__(self, key, value):'
p210
sI924
S"        if key[:1] != '_' and key in self:"
p211
ssg87
S'(self=<DAL uri="mysql:******@localhost/IPOS">, key=\'data_source\')'
p212
sg89
S'__getattr__'
p213
sa(dp214
g66
S'/Users/Brandon/Develop/ipo_web2py/gluon/packages/dal/pydal/base.py'
p215
sg68
(dp216
S'polymodel'
p217
S'None'
p218
ssg74
I873
sg75
(dp219
I868
S'            try:'
p220
sI869
S'                GLOBAL_LOCKER.acquire()'
p221
sI870
S'                self._lastsql = self._adapter.create_table('
p222
sI871
S'                    table,migrate=migrate,'
p223
sI872
S'                    fake_migrate=fake_migrate,'
p224
sI873
S'                    polymodel=polymodel)'
p225
sI874
S'            finally:'
p226
sI875
S'                GLOBAL_LOCKER.release()'
p227
sI876
S'        else:'
p228
sI877
S'            table._dbt = None'
p229
ssg87
S'(self=<DAL uri="mysql:******@localhost/IPOS">, tablename=\'data_source\', *fields=(<pydal.objects.Field object>, <pydal.objects.Field object>, <pydal.objects.Field object>), **args={})'
p230
sg89
S'lazy_define_table'
p231
sa(dp232
g66
S'/Users/Brandon/Develop/ipo_web2py/gluon/packages/dal/pydal/adapters/base.py'
p233
sg68
(dp234
S'fake_migrate'
p235
S'False'
p236
ssg74
I510
sg75
(dp237
I512
S'        return query'
p238
sI513
S''
sI514
S'    def migrate_table('
p239
sI505
S'            if sql_fields != sql_fields_old:'
p240
sI506
S'                self.migrate_table('
p241
sI507
S'                    table,'
p242
sI508
S'                    sql_fields, sql_fields_old,'
p243
sI509
S'                    sql_fields_aux, None,'
p244
sI510
S'                    fake_migrate=fake_migrate'
p245
sI511
S'                    )'
p246
ssg87
S'(self=<pydal.adapters.mysql.MySQLAdapter object>, table=<Table data_source (id, source, datetime, type)>, migrate=True, fake_migrate=False, polymodel=None)'
p247
sg89
S'create_table'
p248
sa(dp249
g66
S'/Users/Brandon/Develop/ipo_web2py/gluon/packages/dal/pydal/adapters/base.py'
p250
sg68
(dp251
S'self'
p252
S'<pydal.adapters.mysql.MySQLAdapter object>'
p253
sS'self.execute'
p254
S'<bound method MySQLAdapter.execute of <pydal.adapters.mysql.MySQLAdapter object>>'
p255
sS'sub_query'
p256
S"'ALTER TABLE data_source ADD type__tmp LONGTEXT NOT NULL;'"
p257
ssg74
I623
sg75
(dp258
I618
S'                    if fake_migrate:'
p259
sI619
S'                        if db._adapter.commit_on_alter_table:'
p260
sI620
S'                            self.save_dbt(table,sql_fields_current)'
p261
sI621
S"                        self.log('faked!\\n', table)"
p262
sI622
S'                    else:'
p263
sI623
S'                        self.execute(sub_query)'
p264
sI624
S'                        # Caveat: mysql, oracle and firebird'
p265
sI625
S'                        # do not allow multiple alter table'
p266
sI626
S'                        # in one transaction so we must commit'
p267
sI627
S'                        # partial transactions and'
p268
ssg87
S"(self=<pydal.adapters.mysql.MySQLAdapter object>, table=<Table data_source (id, source, datetime, type)>, sql_fields={'datetime': {'length': 512, 'notnull': True, 'sortable': 3, 'sql': 'DATETIME NOT NULL', 'type': 'datetime', 'unique': False}, 'id': {'length': 512, 'notnull': False, 'sortable': 1, 'sql': 'INT AUTO_INCREMENT NOT NULL', 'type': 'id', 'unique': False}, 'source': {'length': 512, 'notnull': True, 'sortable': 2, 'sql': 'VARCHAR(512) NOT NULL', 'type': 'string', 'unique': False}, 'type': {'length': 512, 'notnull': True, 'sortable': 4, 'sql': 'LONGTEXT NOT NULL', 'type': 'list:integer', 'unique': False}}, sql_fields_old={'datetime': {'length': 512, 'notnull': True, 'sortable': 3, 'sql': 'DATETIME NOT NULL', 'type': 'datetime', 'unique': False}, 'id': {'length': 512, 'notnull': False, 'sortable': 1, 'sql': 'INT AUTO_INCREMENT NOT NULL', 'type': 'id', 'unique': False}, 'source': {'length': 512, 'notnull': True, 'sortable': 2, 'sql': 'VARCHAR(512) NOT NULL', 'type': 'string', 'unique': False}, 'type': {'length': 512, 'notnull': True, 'sortable': 4, 'sql': 'VARCHAR(512) NOT NULL', 'type': 'string', 'unique': False}}, sql_fields_aux={'datetime': {'sql': 'DATETIME NOT NULL'}, 'id': {'sql': 'INT AUTO_INCREMENT NOT NULL'}, 'source': {'sql': 'VARCHAR(512) NOT NULL'}, 'type': {'sql': 'LONGTEXT NOT NULL'}}, logfile=None, fake_migrate=False)"
p269
sg89
S'migrate_table'
p270
sa(dp271
g66
S'/Users/Brandon/Develop/ipo_web2py/gluon/packages/dal/pydal/adapters/base.py'
p272
sg68
(dp273
S'a'
S"('ALTER TABLE data_source ADD type__tmp LONGTEXT NOT NULL;',)"
p274
sS'self'
p275
S'<pydal.adapters.mysql.MySQLAdapter object>'
p276
sS'b'
g21
sS'self.log_execute'
p277
S'<bound method MySQLAdapter.log_execute of <pydal.adapters.mysql.MySQLAdapter object>>'
p278
ssg74
I1388
sg75
(dp279
I1383
S'        self.db._timings.append((command,time.time()-t0))'
p280
sI1384
S'        del self.db._timings[:-TIMINGSSIZE]'
p281
sI1385
S'        return ret'
p282
sI1386
S''
sI1387
S'    def execute(self, *a, **b):'
p283
sI1388
S'        return self.log_execute(*a, **b)'
p284
sI1389
S''
sI1390
S'    def execute_test_query(self):'
p285
sI1391
S'        return self.execute(self.test_query)'
p286
sI1392
S''
ssg87
S"(self=<pydal.adapters.mysql.MySQLAdapter object>, *a=('ALTER TABLE data_source ADD type__tmp LONGTEXT NOT NULL;',), **b={})"
p287
sg89
S'execute'
p288
sa(dp289
g66
S'/Users/Brandon/Develop/ipo_web2py/gluon/packages/dal/pydal/adapters/base.py'
p290
sg68
(dp291
S'a'
S"('ALTER TABLE data_source ADD type__tmp LONGTEXT NOT NULL;',)"
p292
sS'b'
g21
sS'self'
p293
S'<pydal.adapters.mysql.MySQLAdapter object>'
p294
sS'ret'
p295
g109
sS'command'
p296
S"'ALTER TABLE data_source ADD type__tmp LONGTEXT NOT NULL;'"
p297
sS'self.get_cursor'
p298
S'<bound method MySQLAdapter.get_cursor of <pydal.adapters.mysql.MySQLAdapter object>>'
p299
sS').execute'
p300
g109
ssg74
I1382
sg75
(dp301
I1377
S'            command = self.filter_sql_command(command)'
p302
sI1378
S'        if self.db._debug:'
p303
sI1379
S"            self.db.logger.debug('SQL: %s' % command)"
p304
sI1380
S'        self.db._lastsql = command'
p305
sI1381
S'        t0 = time.time()'
p306
sI1382
S'        ret = self.get_cursor().execute(command, *a[1:], **b)'
p307
sI1383
S'        self.db._timings.append((command,time.time()-t0))'
p308
sI1384
S'        del self.db._timings[:-TIMINGSSIZE]'
p309
sI1385
S'        return ret'
p310
sI1386
S''
ssg87
S"(self=<pydal.adapters.mysql.MySQLAdapter object>, *a=('ALTER TABLE data_source ADD type__tmp LONGTEXT NOT NULL;',), **b={})"
p311
sg89
S'log_execute'
p312
sa(dp313
g66
S'/Users/Brandon/anaconda/lib/python2.7/site-packages/pymysql/cursors.py'
p314
sg68
(dp315
S'query'
p316
S"'ALTER TABLE data_source ADD type__tmp LONGTEXT NOT NULL;'"
p317
sS'self'
p318
S'<pymysql.cursors.Cursor object>'
p319
sS'result'
p320
g109
sS'self._query'
p321
S'<bound method Cursor._query of <pymysql.cursors.Cursor object>>'
p322
ssg74
I166
sg75
(dp323
I161
S'        while self.nextset():'
p324
sI162
S'            pass'
p325
sI163
S''
sI164
S'        query = self.mogrify(query, args)'
p326
sI165
S''
sI166
S'        result = self._query(query)'
p327
sI167
S'        self._executed = query'
p328
sI168
S'        return result'
p329
sI169
S''
sI170
S'    def executemany(self, query, args):'
p330
ssg87
S"(self=<pymysql.cursors.Cursor object>, query='ALTER TABLE data_source ADD type__tmp LONGTEXT NOT NULL;', args=None)"
p331
sg89
g288
sa(dp332
g66
S'/Users/Brandon/anaconda/lib/python2.7/site-packages/pymysql/cursors.py'
p333
sg68
(dp334
S'q'
S"'ALTER TABLE data_source ADD type__tmp LONGTEXT NOT NULL;'"
p335
sS'conn.query'
p336
S'<bound method Connection.query of <pymysql.connections.Connection object>>'
p337
sS'conn'
p338
S'<pymysql.connections.Connection object>'
p339
ssg74
I322
sg75
(dp340
I320
S'        conn = self._get_db()'
p341
sI321
S'        self._last_executed = q'
p342
sI322
S'        conn.query(q)'
p343
sI323
S'        self._do_get_result()'
p344
sI324
S'        return self.rowcount'
p345
sI325
S''
sI326
S'    def _do_get_result(self):'
p346
sI317
S'        self.rownumber = r'
p347
sI318
S''
sI319
S'    def _query(self, q):'
p348
ssg87
S"(self=<pymysql.cursors.Cursor object>, q='ALTER TABLE data_source ADD type__tmp LONGTEXT NOT NULL;')"
p349
sg89
S'_query'
p350
sa(dp351
g66
S'/Users/Brandon/anaconda/lib/python2.7/site-packages/pymysql/connections.py'
p352
sg68
(dp353
S'self._read_query_result'
p354
S'<bound method Connection._read_query_result of <pymysql.connections.Connection object>>'
p355
sS'self'
p356
S'<pymysql.connections.Connection object>'
p357
sS'unbuffered'
p358
g236
sS'self._affected_rows'
p359
S'0'
ssg74
I856
sg75
(dp360
I851
S'            if PY2:'
p361
sI852
S'                sql = sql.encode(self.encoding)'
p362
sI853
S'            else:'
p363
sI854
S"                sql = sql.encode(self.encoding, 'surrogateescape')"
p364
sI855
S'        self._execute_command(COMMAND.COM_QUERY, sql)'
p365
sI856
S'        self._affected_rows = self._read_query_result(unbuffered=unbuffered)'
p366
sI857
S'        return self._affected_rows'
p367
sI858
S''
sI859
S'    def next_result(self, unbuffered=False):'
p368
sI860
S'        self._affected_rows = self._read_query_result(unbuffered=unbuffered)'
p369
ssg87
S"(self=<pymysql.connections.Connection object>, sql='ALTER TABLE data_source ADD type__tmp LONGTEXT NOT NULL;', unbuffered=False)"
p370
sg89
S'query'
p371
sa(dp372
g66
S'/Users/Brandon/anaconda/lib/python2.7/site-packages/pymysql/connections.py'
p373
sg68
(dp374
S'result.read'
p375
S'<bound method MySQLResult.read of <pymysql.connections.MySQLResult object>>'
p376
sS'result'
p377
S'<pymysql.connections.MySQLResult object>'
p378
ssg74
I1057
sg75
(dp379
I1056
S'            result = MySQLResult(self)'
p380
sI1057
S'            result.read()'
p381
sI1058
S'        self._result = result'
p382
sI1059
S'        if result.server_status is not None:'
p383
sI1060
S'            self.server_status = result.server_status'
p384
sI1061
S'        return result.affected_rows'
p385
sI1052
S'                result.unbuffered_active = False'
p386
sI1053
S'                result.connection = None'
p387
sI1054
S'                raise'
p388
sI1055
S'        else:'
p389
ssg87
S'(self=<pymysql.connections.Connection object>, unbuffered=False)'
p390
sg89
S'_read_query_result'
p391
sa(dp392
g66
S'/Users/Brandon/anaconda/lib/python2.7/site-packages/pymysql/connections.py'
p393
sg68
(dp394
S'first_packet'
p395
g109
sS'self'
p396
S'<pymysql.connections.MySQLResult object>'
p397
sS'self.connection'
p398
S'None'
p399
sS'self.connection._read_packet'
p400
g109
ssg74
I1340
sg75
(dp401
I1344
S'            elif first_packet.is_load_local_packet():'
p402
sI1335
S'        if self.unbuffered_active:'
p403
sI1336
S'            self._finish_unbuffered_query()'
p404
sI1337
S''
sI1338
S'    def read(self):'
p405
sI1339
S'        try:'
p406
sI1340
S'            first_packet = self.connection._read_packet()'
p407
sI1341
S''
sI1342
S'            if first_packet.is_ok_packet():'
p408
sI1343
S'                self._read_ok_packet(first_packet)'
p409
ssg87
S'(self=<pymysql.connections.MySQLResult object>)'
p410
sg89
S'read'
p411
sa(dp412
g66
S'/Users/Brandon/anaconda/lib/python2.7/site-packages/pymysql/connections.py'
p413
sg68
(dp414
S'packet'
p415
S'<pymysql.connections.MysqlPacket object>'
p416
sS'packet.check_error'
p417
S'<bound method MysqlPacket.check_error of <pymysql.connections.MysqlPacket object>>'
p418
ssg74
I1014
sg75
(dp419
I1009
S'                continue'
p420
sI1010
S'            if bytes_to_read < MAX_PACKET_LEN:'
p421
sI1011
S'                break'
p422
sI1012
S''
sI1013
S'        packet = packet_type(buff, self.encoding)'
p423
sI1014
S'        packet.check_error()'
p424
sI1015
S'        return packet'
p425
sI1016
S''
sI1017
S'    def _read_bytes(self, num_bytes):'
p426
sI1018
S'        self._sock.settimeout(self._read_timeout)'
p427
ssg87
S"(self=<pymysql.connections.Connection object>, packet_type=<class 'pymysql.connections.MysqlPacket'>)"
p428
sg89
S'_read_packet'
p429
sa(dp430
g66
S'/Users/Brandon/anaconda/lib/python2.7/site-packages/pymysql/connections.py'
p431
sg68
(dp432
S'self._data'
p433
S'"\\xffz\\x04#42S02Table \'ipos.data_source\' doesn\'t exist"'
p434
sS'self'
p435
S'<pymysql.connections.MysqlPacket object>'
p436
sS'global err'
p437
S"<module 'pymysql.err' from '/Users/Brandon/anaconda/lib/python2.7/site-packages/pymysql/err.pyc'>"
p438
sS'err.raise_mysql_exception'
p439
S'<function raise_mysql_exception>'
p440
ssg74
I393
sg75
(dp441
I388
S'        if self.is_error_packet():'
p442
sI389
S'            self.rewind()'
p443
sI390
S'            self.advance(1)  # field_count == error (we already know that)'
p444
sI391
S'            errno = self.read_uint16()'
p445
sI392
S'            if DEBUG: print("errno =", errno)'
p446
sI393
S'            err.raise_mysql_exception(self._data)'
p447
sI394
S''
sI395
S'    def dump(self):'
p448
sI396
S'        dump_packet(self._data)'
p449
sI397
S''
ssg87
S'(self=<pymysql.connections.MysqlPacket object>)'
p450
sg89
S'check_error'
p451
sa(dp452
g66
S'/Users/Brandon/anaconda/lib/python2.7/site-packages/pymysql/err.py'
p453
sg68
(dp454
S'errorclass'
p455
S"<class 'pymysql.err.ProgrammingError'>"
p456
sS'errno'
p457
S'1146'
p458
sS'errval'
p459
S'u"Table \'ipos.data_source\' doesn\'t exist"'
p460
ssg74
I107
sg75
(dp461
I98
S'def raise_mysql_exception(data):'
p462
sI99
S"    errno = struct.unpack('<h', data[1:3])[0]"
p463
sI100
S'    is_41 = data[3:4] == b"#"'
p464
sI101
S'    if is_41:'
p465
sI102
S'        # client protocol 4.1'
p466
sI103
S"        errval = data[9:].decode('utf-8', 'replace')"
p467
sI104
S'    else:'
p468
sI105
S"        errval = data[3:].decode('utf-8', 'replace')"
p469
sI106
S'    errorclass = error_map.get(errno, InternalError)'
p470
sI107
S'    raise errorclass(errno, errval)'
p471
ssg87
S'(data="\\xffz\\x04#42S02Table \'ipos.data_source\' doesn\'t exist")'
p472
sg89
S'raise_mysql_exception'
p473
sasS'pyver'
p474
S'Python 2.7.10: /Users/Brandon/anaconda/bin/python (prefix: /Users/Brandon/anaconda)'
p475
sS'session'
p476
g61
(S's\x1a\x00\x00\x00<div><table></table></div>'
tRp477
sS'etype'
p478
S"<class 'pymysql.err.ProgrammingError'>"
p479
sS'date'
p480
S'Sun Apr 30 20:39:36 2017'
p481
sS'response'
p482
g61
(S's\x7f=\x00\x00<div><table><tr><td style="font-weight:bold;vertical-align:top;">body</td><td style="vertical-align:top;">:</td><td><div>&lt;cStringIO.StringO object at 0x10f46a298&gt;</div></td></tr><tr><td style="font-weight:bold;vertical-align:top;">cookies</td><td style="vertical-align:top;">:</td><td><div><table><tr><td style="font-weight:bold;vertical-align:top;">session_id_ipos</td><td style="vertical-align:top;">:</td><td><div>127.0.0.1-53e642a2-2e3e-445a-86e0-513c94b317bb<table><tr><td style="font-weight:bold;vertical-align:top;">comment</td><td style="vertical-align:top;">:</td><td><div></div></td></tr><tr><td style="font-weight:bold;vertical-align:top;">domain</td><td style="vertical-align:top;">:</td><td><div></div></td></tr><tr><td style="font-weight:bold;vertical-align:top;">expires</td><td style="vertical-align:top;">:</td><td><div></div></td></tr><tr><td style="font-weight:bold;vertical-align:top;">httponly</td><td style="vertical-align:top;">:</td><td><div></div></td></tr><tr><td style="font-weight:bold;vertical-align:top;">max-age</td><td style="vertical-align:top;">:</td><td><div></div></td></tr><tr><td style="font-weight:bold;vertical-align:top;">path</td><td style="vertical-align:top;">:</td><td><div>/</div></td></tr><tr><td style="font-weight:bold;vertical-align:top;">secure</td><td style="vertical-align:top;">:</td><td><div></div></td></tr><tr><td style="font-weight:bold;vertical-align:top;">version</td><td style="vertical-align:top;">:</td><td><div></div></td></tr></table></div></td></tr></table></div></td></tr><tr><td style="font-weight:bold;vertical-align:top;">delimiters</td><td style="vertical-align:top;">:</td><td><div><table><tr><td><div>{{</div></td></tr><tr><td><div>}}</div></td></tr></table></div></td></tr><tr><td style="font-weight:bold;vertical-align:top;">files</td><td style="vertical-align:top;">:</td><td><div><table></table></div></td></tr><tr><td style="font-weight:bold;vertical-align:top;">flash</td><td style="vertical-align:top;">:</td><td><div></div></td></tr><tr><td style="font-weight:bold;vertical-align:top;">form_label_separator</td><td style="vertical-align:top;">:</td><td><div>: </div></td></tr><tr><td style="font-weight:bold;vertical-align:top;">formstyle</td><td style="vertical-align:top;">:</td><td><div>table3cols</div></td></tr><tr><td style="font-weight:bold;vertical-align:top;">generic_patterns</td><td style="vertical-align:top;">:</td><td><div><table><tr><td><div>*</div></td></tr></table></div></td></tr><tr><td style="font-weight:bold;vertical-align:top;">google_analytics_id</td><td style="vertical-align:top;">:</td><td><div>None</div></td></tr><tr><td style="font-weight:bold;vertical-align:top;">headers</td><td style="vertical-align:top;">:</td><td><div><table><tr><td style="font-weight:bold;vertical-align:top;">X-Powered-By</td><td style="vertical-align:top;">:</td><td><div>web2py</div></td></tr></table></div></td></tr><tr><td style="font-weight:bold;vertical-align:top;">logo</td><td style="vertical-align:top;">:</td><td><div><a class="navbar-brand" href="http://www.web2py.com/" id="web2py-logo"><b>web<span>2</span>py</b>&trade;&nbsp;</a></div></td></tr><tr><td style="font-weight:bold;vertical-align:top;">menu</td><td style="vertical-align:top;">:</td><td><div><table><tr><td><div><table><tr><td><div>Home</div></td></tr><tr><td><div>False</div></td></tr><tr><td><div>/</div></td></tr><tr><td><div><table></table></div></td></tr></table></div></td></tr><tr><td><div><table><tr><td><div>My Sites</div></td></tr><tr><td><div>False</div></td></tr><tr><td><div>/admin/site</div></td></tr></table></div></td></tr><tr><td><div><table><tr><td><div>This App</div></td></tr><tr><td><div>False</div></td></tr><tr><td><div>#</div></td></tr><tr><td><div><table><tr><td><div><table><tr><td><div>Design</div></td></tr><tr><td><div>False</div></td></tr><tr><td><div>/admin/design/ipos</div></td></tr></table></div></td></tr><tr><td><div><li class="divider"></li></div></td></tr><tr><td><div><table><tr><td><div>Controller</div></td></tr><tr><td><div>False</div></td></tr><tr><td><div>/admin/edit/ipos/controllers/default.py</div></td></tr></table></div></td></tr><tr><td><div><table><tr><td><div>View</div></td></tr><tr><td><div>False</div></td></tr><tr><td><div>/admin/edit/ipos/views/default/matcher.html</div></td></tr></table></div></td></tr><tr><td><div><table><tr><td><div>DB Model</div></td></tr><tr><td><div>False</div></td></tr><tr><td><div>/admin/edit/ipos/models/db.py</div></td></tr></table></div></td></tr><tr><td><div><table><tr><td><div>Menu Model</div></td></tr><tr><td><div>False</div></td></tr><tr><td><div>/admin/edit/ipos/models/menu.py</div></td></tr></table></div></td></tr><tr><td><div><table><tr><td><div>Config.ini</div></td></tr><tr><td><div>False</div></td></tr><tr><td><div>/admin/edit/ipos/private/appconfig.ini</div></td></tr></table></div></td></tr><tr><td><div><table><tr><td><div>Layout</div></td></tr><tr><td><div>False</div></td></tr><tr><td><div>/admin/edit/ipos/views/layout.html</div></td></tr></table></div></td></tr><tr><td><div><table><tr><td><div>Stylesheet</div></td></tr><tr><td><div>False</div></td></tr><tr><td><div>/admin/edit/ipos/static/css/web2py-bootstrap3.css</div></td></tr></table></div></td></tr><tr><td><div><table><tr><td><div>Database</div></td></tr><tr><td><div>False</div></td></tr><tr><td><div>/appadmin</div></td></tr></table></div></td></tr><tr><td><div><table><tr><td><div>Errors</div></td></tr><tr><td><div>False</div></td></tr><tr><td><div>/admin/errors/ipos</div></td></tr></table></div></td></tr><tr><td><div><table><tr><td><div>About</div></td></tr><tr><td><div>False</div></td></tr><tr><td><div>/admin/about/ipos</div></td></tr></table></div></td></tr></table></div></td></tr></table></div></td></tr><tr><td><div><table><tr><td><div>web2py.com</div></td></tr><tr><td><div>False</div></td></tr><tr><td><div>#</div></td></tr><tr><td><div><table><tr><td><div><table><tr><td><div>Download</div></td></tr><tr><td><div>False</div></td></tr><tr><td><div>http://www.web2py.com/examples/default/download</div></td></tr></table></div></td></tr><tr><td><div><table><tr><td><div>Support</div></td></tr><tr><td><div>False</div></td></tr><tr><td><div>http://www.web2py.com/examples/default/support</div></td></tr></table></div></td></tr><tr><td><div><table><tr><td><div>Demo</div></td></tr><tr><td><div>False</div></td></tr><tr><td><div>http://web2py.com/demo_admin</div></td></tr></table></div></td></tr><tr><td><div><table><tr><td><div>Quick Examples</div></td></tr><tr><td><div>False</div></td></tr><tr><td><div>http://web2py.com/examples/default/examples</div></td></tr></table></div></td></tr><tr><td><div><table><tr><td><div>FAQ</div></td></tr><tr><td><div>False</div></td></tr><tr><td><div>http://web2py.com/AlterEgo</div></td></tr></table></div></td></tr><tr><td><div><table><tr><td><div>Videos</div></td></tr><tr><td><div>False</div></td></tr><tr><td><div>http://www.web2py.com/examples/default/videos/</div></td></tr></table></div></td></tr><tr><td><div><table><tr><td><div>Free Applications</div></td></tr><tr><td><div>False</div></td></tr><tr><td><div>http://web2py.com/appliances</div></td></tr></table></div></td></tr><tr><td><div><table><tr><td><div>Plugins</div></td></tr><tr><td><div>False</div></td></tr><tr><td><div>http://web2py.com/plugins</div></td></tr></table></div></td></tr><tr><td><div><table><tr><td><div>Recipes</div></td></tr><tr><td><div>False</div></td></tr><tr><td><div>http://web2pyslices.com/</div></td></tr></table></div></td></tr></table></div></td></tr></table></div></td></tr><tr><td><div><table><tr><td><div>Documentation</div></td></tr><tr><td><div>False</div></td></tr><tr><td><div>#</div></td></tr><tr><td><div><table><tr><td><div><table><tr><td><div>Online book</div></td></tr><tr><td><div>False</div></td></tr><tr><td><div>http://www.web2py.com/book</div></td></tr></table></div></td></tr><tr><td><div><li class="divider"></li></div></td></tr><tr><td><div><table><tr><td><div>Preface</div></td></tr><tr><td><div>False</div></td></tr><tr><td><div>http://www.web2py.com/book/default/chapter/00</div></td></tr></table></div></td></tr><tr><td><div><table><tr><td><div>Introduction</div></td></tr><tr><td><div>False</div></td></tr><tr><td><div>http://www.web2py.com/book/default/chapter/01</div></td></tr></table></div></td></tr><tr><td><div><table><tr><td><div>Python</div></td></tr><tr><td><div>False</div></td></tr><tr><td><div>http://www.web2py.com/book/default/chapter/02</div></td></tr></table></div></td></tr><tr><td><div><table><tr><td><div>Overview</div></td></tr><tr><td><div>False</div></td></tr><tr><td><div>http://www.web2py.com/book/default/chapter/03</div></td></tr></table></div></td></tr><tr><td><div><table><tr><td><div>The Core</div></td></tr><tr><td><div>False</div></td></tr><tr><td><div>http://www.web2py.com/book/default/chapter/04</div></td></tr></table></div></td></tr><tr><td><div><table><tr><td><div>The Views</div></td></tr><tr><td><div>False</div></td></tr><tr><td><div>http://www.web2py.com/book/default/chapter/05</div></td></tr></table></div></td></tr><tr><td><div><table><tr><td><div>Database</div></td></tr><tr><td><div>False</div></td></tr><tr><td><div>http://www.web2py.com/book/default/chapter/06</div></td></tr></table></div></td></tr><tr><td><div><table><tr><td><div>Forms and Validators</div></td></tr><tr><td><div>False</div></td></tr><tr><td><div>http://www.web2py.com/book/default/chapter/07</div></td></tr></table></div></td></tr><tr><td><div><table><tr><td><div>Email and SMS</div></td></tr><tr><td><div>False</div></td></tr><tr><td><div>http://www.web2py.com/book/default/chapter/08</div></td></tr></table></div></td></tr><tr><td><div><table><tr><td><div>Access Control</div></td></tr><tr><td><div>False</div></td></tr><tr><td><div>http://www.web2py.com/book/default/chapter/09</div></td></tr></table></div></td></tr><tr><td><div><table><tr><td><div>Services</div></td></tr><tr><td><div>False</div></td></tr><tr><td><div>http://www.web2py.com/book/default/chapter/10</div></td></tr></table></div></td></tr><tr><td><div><table><tr><td><div>Ajax Recipes</div></td></tr><tr><td><div>False</div></td></tr><tr><td><div>http://www.web2py.com/book/default/chapter/11</div></td></tr></table></div></td></tr><tr><td><div><table><tr><td><div>Components and Plugins</div></td></tr><tr><td><div>False</div></td></tr><tr><td><div>http://www.web2py.com/book/default/chapter/12</div></td></tr></table></div></td></tr><tr><td><div><table><tr><td><div>Deployment Recipes</div></td></tr><tr><td><div>False</div></td></tr><tr><td><div>http://www.web2py.com/book/default/chapter/13</div></td></tr></table></div></td></tr><tr><td><div><table><tr><td><div>Other Recipes</div></td></tr><tr><td><div>False</div></td></tr><tr><td><div>http://www.web2py.com/book/default/chapter/14</div></td></tr></table></div></td></tr><tr><td><div><table><tr><td><div>Helping web2py</div></td></tr><tr><td><div>False</div></td></tr><tr><td><div>http://www.web2py.com/book/default/chapter/15</div></td></tr></table></div></td></tr><tr><td><div><table><tr><td><div>Buy web2py\'s book</div></td></tr><tr><td><div>False</div></td></tr><tr><td><div>http://stores.lulu.com/web2py</div></td></tr></table></div></td></tr></table></div></td></tr></table></div></td></tr><tr><td><div><table><tr><td><div>Community</div></td></tr><tr><td><div>False</div></td></tr><tr><td><div>None</div></td></tr><tr><td><div><table><tr><td><div><table><tr><td><div>Groups</div></td></tr><tr><td><div>False</div></td></tr><tr><td><div>http://www.web2py.com/examples/default/usergroups</div></td></tr></table></div></td></tr><tr><td><div><table><tr><td><div>Twitter</div></td></tr><tr><td><div>False</div></td></tr><tr><td><div>http://twitter.com/web2py</div></td></tr></table></div></td></tr><tr><td><div><table><tr><td><div>Live Chat</div></td></tr><tr><td><div>False</div></td></tr><tr><td><div>http://webchat.freenode.net/?channels=web2py</div></td></tr></table></div></td></tr></table></div></td></tr></table></div></td></tr></table></div></td></tr><tr><td style="font-weight:bold;vertical-align:top;">meta</td><td style="vertical-align:top;">:</td><td><div><table><tr><td style="font-weight:bold;vertical-align:top;">author</td><td style="vertical-align:top;">:</td><td><div>Your Name &lt;you@example.com&gt;</div></td></tr><tr><td style="font-weight:bold;vertical-align:top;">description</td><td style="vertical-align:top;">:</td><td><div>a cool new app</div></td></tr><tr><td style="font-weight:bold;vertical-align:top;">generator</td><td style="vertical-align:top;">:</td><td><div>Web2py Web Framework</div></td></tr><tr><td style="font-weight:bold;vertical-align:top;">keywords</td><td style="vertical-align:top;">:</td><td><div><table><tr><td><div>web2py</div></td></tr><tr><td><div>python</div></td></tr><tr><td><div>framework</div></td></tr></table></div></td></tr></table></div></td></tr><tr><td style="font-weight:bold;vertical-align:top;">models_to_run</td><td style="vertical-align:top;">:</td><td><div><table><tr><td><div>^\\w+\\.py$</div></td></tr><tr><td><div>^default/\\w+\\.py$</div></td></tr><tr><td><div>^default/matcher/\\w+\\.py$</div></td></tr></table></div></td></tr><tr><td style="font-weight:bold;vertical-align:top;">postprocessing</td><td style="vertical-align:top;">:</td><td><div><table></table></div></td></tr><tr><td style="font-weight:bold;vertical-align:top;">session_client</td><td style="vertical-align:top;">:</td><td><div>127.0.0.1</div></td></tr><tr><td style="font-weight:bold;vertical-align:top;">session_cookie_compression_level</td><td style="vertical-align:top;">:</td><td><div>None</div></td></tr><tr><td style="font-weight:bold;vertical-align:top;">session_cookie_expires</td><td style="vertical-align:top;">:</td><td><div>None</div></td></tr><tr><td style="font-weight:bold;vertical-align:top;">session_data_name</td><td style="vertical-align:top;">:</td><td><div>session_data_ipos</div></td></tr><tr><td style="font-weight:bold;vertical-align:top;">session_file</td><td style="vertical-align:top;">:</td><td><div>None</div></td></tr><tr><td style="font-weight:bold;vertical-align:top;">session_filename</td><td style="vertical-align:top;">:</td><td><div>/Users/Brandon/Develop/ipo_web2py/applications/ipos/sessions/127.0.0.1-53e642a2-2e3e-445a-86e0-513c94b317bb</div></td></tr><tr><td style="font-weight:bold;vertical-align:top;">session_hash</td><td style="vertical-align:top;">:</td><td><div>c0762cbf4baf7f9af97c051e7fcb8083</div></td></tr><tr><td style="font-weight:bold;vertical-align:top;">session_id</td><td style="vertical-align:top;">:</td><td><div>127.0.0.1-53e642a2-2e3e-445a-86e0-513c94b317bb</div></td></tr><tr><td style="font-weight:bold;vertical-align:top;">session_id_name</td><td style="vertical-align:top;">:</td><td><div>session_id_ipos</div></td></tr><tr><td style="font-weight:bold;vertical-align:top;">session_masterapp</td><td style="vertical-align:top;">:</td><td><div>ipos</div></td></tr><tr><td style="font-weight:bold;vertical-align:top;">session_new</td><td style="vertical-align:top;">:</td><td><div>True</div></td></tr><tr><td style="font-weight:bold;vertical-align:top;">session_storage_type</td><td style="vertical-align:top;">:</td><td><div>file</div></td></tr><tr><td style="font-weight:bold;vertical-align:top;">status</td><td style="vertical-align:top;">:</td><td><div>200</div></td></tr><tr><td style="font-weight:bold;vertical-align:top;">subtitle</td><td style="vertical-align:top;">:</td><td><div></div></td></tr><tr><td style="font-weight:bold;vertical-align:top;">title</td><td style="vertical-align:top;">:</td><td><div>Ipos</div></td></tr><tr><td style="font-weight:bold;vertical-align:top;">view</td><td style="vertical-align:top;">:</td><td><div>default/matcher.html</div></td></tr></table></div>'
tRp483
sS'locals'
p484
(dp485
S'errorclass'
p486
S"<class 'pymysql.err.ProgrammingError'>"
p487
sS'errno'
p488
S'1146'
p489
sS'is_41'
p490
S'True'
p491
sS'errval'
p492
S'u"Table \'ipos.data_source\' doesn\'t exist"'
p493
sS'data'
p494
S'"\\xffz\\x04#42S02Table \'ipos.data_source\' doesn\'t exist"'
p495
sssS'traceback'
p496
S'Traceback (most recent call last):\n  File "/Users/Brandon/Develop/ipo_web2py/gluon/restricted.py", line 227, in restricted\n    exec ccode in environment\n  File "/Users/Brandon/Develop/ipo_web2py/applications/ipos/controllers/default.py", line 149, in <module>\n  File "/Users/Brandon/Develop/ipo_web2py/gluon/globals.py", line 417, in <lambda>\n    self._caller = lambda f: f()\n  File "/Users/Brandon/Develop/ipo_web2py/applications/ipos/controllers/default.py", line 41, in matcher\n    saveIpoAndCompanyData(ipos)\n  File "/Users/Brandon/Develop/ipo_web2py/applications/ipos/controllers/default.py", line 98, in saveIpoAndCompanyData\n    data_source_id = createNewDataSource("MarketWatch",[DataSourceTypes.IPO, DataSourceTypes.COMPANY])\n  File "/Users/Brandon/Develop/ipo_web2py/applications/ipos/controllers/default.py", line 85, in createNewDataSource\n    return db.data_source.insert(source=source,type=type,datetime=datetime.today())\n  File "/Users/Brandon/Develop/ipo_web2py/gluon/packages/dal/pydal/base.py", line 920, in __getattr__\n    return self.lazy_define_table(tablename, *fields, **args)\n  File "/Users/Brandon/Develop/ipo_web2py/gluon/packages/dal/pydal/base.py", line 873, in lazy_define_table\n    polymodel=polymodel)\n  File "/Users/Brandon/Develop/ipo_web2py/gluon/packages/dal/pydal/adapters/base.py", line 510, in create_table\n    fake_migrate=fake_migrate\n  File "/Users/Brandon/Develop/ipo_web2py/gluon/packages/dal/pydal/adapters/base.py", line 623, in migrate_table\n    self.execute(sub_query)\n  File "/Users/Brandon/Develop/ipo_web2py/gluon/packages/dal/pydal/adapters/base.py", line 1388, in execute\n    return self.log_execute(*a, **b)\n  File "/Users/Brandon/Develop/ipo_web2py/gluon/packages/dal/pydal/adapters/base.py", line 1382, in log_execute\n    ret = self.get_cursor().execute(command, *a[1:], **b)\n  File "/Users/Brandon/anaconda/lib/python2.7/site-packages/pymysql/cursors.py", line 166, in execute\n    result = self._query(query)\n  File "/Users/Brandon/anaconda/lib/python2.7/site-packages/pymysql/cursors.py", line 322, in _query\n    conn.query(q)\n  File "/Users/Brandon/anaconda/lib/python2.7/site-packages/pymysql/connections.py", line 856, in query\n    self._affected_rows = self._read_query_result(unbuffered=unbuffered)\n  File "/Users/Brandon/anaconda/lib/python2.7/site-packages/pymysql/connections.py", line 1057, in _read_query_result\n    result.read()\n  File "/Users/Brandon/anaconda/lib/python2.7/site-packages/pymysql/connections.py", line 1340, in read\n    first_packet = self.connection._read_packet()\n  File "/Users/Brandon/anaconda/lib/python2.7/site-packages/pymysql/connections.py", line 1014, in _read_packet\n    packet.check_error()\n  File "/Users/Brandon/anaconda/lib/python2.7/site-packages/pymysql/connections.py", line 393, in check_error\n    err.raise_mysql_exception(self._data)\n  File "/Users/Brandon/anaconda/lib/python2.7/site-packages/pymysql/err.py", line 107, in raise_mysql_exception\n    raise errorclass(errno, errval)\nProgrammingError: (1146, u"Table \'ipos.data_source\' doesn\'t exist")\n'
p497
s.