(dp1
S'output'
p2
S"<type 'exceptions.NameError'> name 'matchers' is not defined"
p3
sS'layer'
p4
S'/Users/Brandon/Develop/ipo_web_app/applications/ipos/views/default/matcher.html'
p5
sS'code'
p6
S'response.files.append(URL(\'static\',\'css/ipo.css\'))\nresponse.write(\'\\n\', escape=False)\nresponse.files.append(URL(\'static\',\'js/jquery-2.2.2.min.js\'))\nresponse.write(\'\\n\', escape=False)\nresponse.files.append(URL(\'static\',\'bootstrap/css/bootstrap.min.css\'))\nresponse.write(\'\\n\', escape=False)\nresponse.files.append(URL(\'static\',\'bootstrap/ipo.css\'))\nresponse.write(\'\\n\', escape=False)\nresponse.write(\'<script type="text/javascript"><!--\\n    // These variables are used by the web2py_ajax_init function in web2py_ajax.js (which is loaded below).\\n    var w2p_ajax_confirm_message = "\', escape=False)\nresponse.write(T(\'Are you sure you want to delete this object?\'))\nresponse.write(\'";\\n    var w2p_ajax_disable_with_message = "\', escape=False)\nresponse.write(T(\'Working...\'))\nresponse.write(\'";\\n    var w2p_ajax_date_format = "\', escape=False)\nresponse.write(T(\'%Y-%m-%d\'))\nresponse.write(\'";\\n    var w2p_ajax_datetime_format = "\', escape=False)\nresponse.write(T(\'%Y-%m-%d %H:%M:%S\'))\nresponse.write(\'";\\n    var ajax_error_500 = \\\'\', escape=False)\nresponse.write(T.M(\'An error occured, please [[reload %s]] the page\') % URL(args=request.args, vars=request.get_vars))\nresponse.write("\'\\n    //--></script>\\n", escape=False)\nresponse.files.insert(0,URL(\'static\',\'js/jquery.js\'))\nresponse.files.insert(1,URL(\'static\',\'css/calendar.css\'))\nresponse.files.insert(2,URL(\'static\',\'js/calendar.js\'))\nresponse.files.insert(3,URL(\'static\',\'js/web2py.js\'))\nresponse.include_meta()\nresponse.include_files()\nresponse.write(\'\\n\', escape=False)\nresponse.write(\'\\n\\n\', escape=False)\nif \'message\' in globals():\n    response.write(\'\\n<h2>\', escape=False)\n    response.write(message)\n    response.write(\'</h2>\\n\', escape=False)\n    pass\nresponse.write(\'\\n\\n\', escape=False)\nif \'matches\' in globals():\n    response.write(\'\\n\\t<div class="container">\\n\\t\\t<div class="row">\\n\\t        <!-- LOCAL INFORMATION -->\\n\\t        <div class="col-sm-12">\\n\\t\\t\\t\\t\', escape=False)\n    for group in groups:\n        response.write(\'\\n\\t\\t\\t\\t\\t\', escape=False)\n        group_label = group[0]\n        response.write(\'\\n\\t\\t\\t\\t\\t\', escape=False)\n        group_identifier = group[1]\n        response.write(\'\\n\\t\\t\\t\\t\\t\', escape=False)\n        if group_identifier in matchers.keys():\n            response.write(\'\\n\\t\\t\\t\\t\\t \\t<div class="well">\\n\\t\\t\\t\\t\\t \\t\\t\\n\\t\\t\\t\\t\\t\\t    <h3>\', escape=False)\n            response.write(group_label)\n            response.write(\'</h3>\\n\\t\\t\\t\\t\\t\\t\\t\', escape=False)\n            if len(matches[group_identifier])>0:\n                response.write(\'\\n\\t\\t\\t\\t\\t\\t\\t\\t<table class = "responsive_table generic_table table table-bordered table-hover ipo_table" >\\n\\t\\t\\t\\t\\t\\t            <tr class="mobile_hide">\\n\\t\\t\\t\\t\\t\\t            \\t <th><label class="mobile_hide">Company Name </label></th>\\n\\t\\t\\t\\t\\t\\t            \\t <th><label class="mobile_hide">Company Description</label></th>\\n\\t\\t\\t\\t\\t\\t            \\t <th><label class="mobile_hide">Matched Key Words</label></th>\\n\\t\\t\\t\\t\\t\\t            </tr>\\n\\t\\t\\t\\t\\t\\t\\t\\t\\t\', escape=False)\n                for match in matches[group_identifier]:\n                    response.write(\'\\n\\t\\t\\t\\t\\t\\t\\t\\t\\t\\t<tr>\\n\\t\\t\\t\\t\\t\\t\\t\\t\\t\\t\\t<td><label class="mobile_show">Company Name  </label>\', escape=False)\n                    response.write(match[\'company_name\'])\n                    response.write(\'</td>\\n\\t\\t\\t\\t\\t\\t\\t\\t\\t\\t\\t<td><label class="mobile_show">Company Description </label>\', escape=False)\n                    response.write(match[\'description\'])\n                    response.write(\'</td>\\n\\t\\t\\t\\t\\t\\t\\t\\t\\t\\t\\t<td><label class="mobile_show">Matched Key Words </label>\', escape=False)\n                    for idx, keyWord in enumerate(match[\'keyWordMatches\']):\n                        response.write(\'\\n\\t\\t\\t\\t\\t\\t\\t\\t\\t\\t\\t\\t\\t\', escape=False)\n                        response.write(keyWord)\n                        if idx != len(match[\'keyWordMatches\'])-1:\n                            response.write(\',\', escape=False)\n                            pass\n                        response.write(\'\\n\\t\\t\\t\\t\\t\\t\\t\\t\\t\\t\\t\\t\', escape=False)\n                        pass\n                    response.write(\'\\n\\t\\t\\t\\t\\t\\t\\t\\t\\t\\t\\t</td>\\n\\t\\t\\t\\t\\t\\t\\t\\t\\t\\t</tr>\\n\\t\\t\\t\\t\\t\\t\\t\\t\\t\', escape=False)\n                    pass\n                response.write(\'\\n\\t\\t\\t\\t\\t\\t\\t\\t</table>\\n\\t\\t\\t\\t\\t\\t\\t\', escape=False)\n            else:\n                response.write(\'\\n\\t\\t\\t\\t\\t\\t\\t\\tNo matches :(\\n\\t\\t\\t\\t\\t\\t\\t\', escape=False)\n                pass\n            response.write(\'\\n\\t\\t\\t\\t\\t\\t</div>\\n\\t\\t\\t\\t\\t\', escape=False)\n            pass\n        response.write(\'\\n\\t\\t\\t\\t\', escape=False)\n        pass\n    response.write(\'\\n\\t\\t\\t</div>\\n\\t\\t</div>\\n\\t</div>\\n\', escape=False)\n    pass'
p7
sS'snapshot'
p8
(dp9
sS'traceback'
p10
S'Traceback (most recent call last):\n  File "/Users/Brandon/Develop/ipo_web_app/gluon/restricted.py", line 227, in restricted\n    exec ccode in environment\n  File "/Users/Brandon/Develop/ipo_web_app/applications/ipos/views/default/matcher.html", line 42, in <module>\n    No matches :(\nNameError: name \'matchers\' is not defined\n'
p11
s.