(dp1
S'output'
p2
S"<type 'exceptions.RuntimeError'> maximum recursion depth exceeded while calling a Python object"
p3
sS'layer'
p4
S'/Users/Brandon/Develop/ipo_web2py/applications/ipos/controllers/default.py'
p5
sS'code'
p6
S'# -*- coding: utf-8 -*-\n# this file is released under public domain and you can use without limitations\n\n# -------------------------------------------------------------------------\n# This is a sample controller\n# - index is the default action of any application\n# - user is required for authentication and authorization\n# - download is for downloading files uploaded in the db (does streaming)\n# -------------------------------------------------------------------------\n\nfrom IpoFetcher import IpoFetcher\nfrom CompanyInformationFetcher import CompanyInformationFetcher\nfrom DataMatcher import DataMatcher\nfrom Enums import DataSourceTypes\nfrom DateHandling import DateHandling\n\nimport json\nimport os\n\nno_input_text = "123__NO_INPUT_TEXT__123"\n\ndef index():\n    redirect(URL(\'matcher\'))\n\ndef matcher():\n    text_input = None\n\n    match_all=False\n    if request.vars.has_key(\'match_all\') and request.vars[\'match_all\'] == "true":\n        match_all = True\n\n    if request.vars.has_key(\'keyWords\') and request.vars[\'keyWords\']:\n        text_input = request.vars[\'keyWords\']\n    else:\n        filepath = os.path.join(request.folder, \'uploads\', \'keyWords.txt\')\n        with open(filepath, \'r\') as text_input_file:\n            text_input = text_input_file.read()\n\n    # time_to_expire = DateHandling.secondsUntilNextDay() #cache until next day - commenting out because of timezone issues\n    ipos = getIpos()\n    DateHandling.secondsUntilNextDay()\n    companyData = getCompanyData(ipos)\n    print companyData\n    # companyData = cache.disk(\'companies\', lambda: CompanyInformationFetcher(ipos).companies, time_expire=time_to_expire)    \n    matches = DataMatcher(text_input,match_all,companyData).matches\n\n    groups=[("This Week", "this_week"),("Next Week","next_week"),("Future","future")]\n    return dict(message=T(\'IPO Matcher\'),matches=matches,groups=groups,text_area_input=text_input)\n\ndef getIpos():\n    thisWeekRange = DateHandling.convertRangeToDateTimeExclusiveEndDate(DateHandling.getThisWeekRange())\n    thisWeekIpoInfo = None\n    try:\n        thisWeekIpoInfo = db(db.data_source.date_time >= thisWeekRange[0] and db.data_source.date_time < thisWeekRange[1]\n            and DataSourceTypes.IPO.value in db.data_source.type and db.data_source.id == db.ipo_info.data_source_id and\n            db.company_info.id == db.ipo_info.company_id).select()\n    except Exception as e:\n        print "Error: Issues getting ipo info from db"\n        print type(e)\n        print e\n\n    if thisWeekIpoInfo:\n        print thisWeekIpoInfo\n        return thisWeekIpoInfo\n    else:\n        # ipos = cache.disk(\'ipos\', lambda: IpoFetcher().ipos, time_expire=time_to_expire)  \n        ipos = IpoFetcher().ipos\n        saveIpoAndCompanyData(ipos)\n        return getIpos()\n\ndef getCompanyData(ipos):\n    thisWeekRange = DateHandling.convertRangeToDateTimeExclusiveEndDate(DateHandling.getThisWeekRange())\n    thisWeekCompanyDescription = None\n    try:\n        thisWeekCompanyDescription = db(db.data_source.date_time >= thisWeekRange[0] and db.data_source.date_time < thisWeekRange[1]\n            and DataSourceTypes.COMPANY_DESCRIPTION.value in db.data_source.type and db.data_source_id == db.company_description.data_source_id \n            and db.company_info.id == db.company_description.company_id).select()\n    except Exception as e:\n        print "Error: Issues getting company description from Db"\n        print type(e)\n        print e\n    if thisWeekCompanyDescription:\n        return thisWeekCompanyDescription\n    else:\n        companyDescriptions = CompanyInformationFetcher(ipos).companies\n        saveCompanyDescription(companyDescriptions)\n        return getCompanyData(ipos)\n\n# Assuming there is already an associated company in the database, otherwise we wouldn\'t be getting information about it\ndef saveCompanyDescription(companyDescriptions):\n    data_source_id = createNewDataSource("MarketWatch",[DataSourceTypes.COMPANY_DESCRIPTION.value])\n    for companyDescriptionInfo in companyDescriptions:\n        company = None\n        try:\n            company = db(db.company_info.name == companyDescriptionInfo.company_name and db.company_info.ticker == companyDescriptionInfo.ticker).select().first()\n            #If cannot resolve company from ticker and name, there is an issues. Print error and continue to next company\n            if not company:\n                print "Cannot find company id from name for: "\n                print "Name = " + companyDescriptionInfo.company_name\n                print "Ticker = " + companyDescriptionInfo.ticker\n                continue\n        except Exception as e:\n            print "Error: Issues comparing company name "\n            print type(e)\n            print e\n        # If we\'ve made it here, a companyid has been found\n        db.company_description.insert(description=companyDescriptionInfo.description,company_id = company.id, data_source_id = data_source_id)\n\n\ndef createNewDataSource(source, type):\n    return db.data_source.insert(source=source,type=type,date_time=DateHandling.today())\n\ndef saveIpoAndCompanyData(ipos):\n    data_source_id = createNewDataSource("MarketWatch",[DataSourceTypes.IPO.value, DataSourceTypes.COMPANY.value])\n    this_week_range = DateHandling.getThisWeekRange()\n    next_week_range = DateHandling.getNextWeekRange()\n    for group in ipos.keys():\n        date_week = DateHandling.getDateWeekFromGroup(group)\n        for company in ipos[group]:\n            company_name = company[0]\n            company_ticker = company[1]\n            companyInDb = None\n            try:\n                companyInDb = db(db.company_info.name==company_name).select().first()\n            except Exception as e:\n                print "Error: Issues getting company name from db"\n                print type(e)\n                print e\n            if not companyInDb: #if company doesn\'t exist, create it\n                company_id = db.company_info.insert(name=company_name,data_source_id=data_source_id)\n            else:\n                company_id = companyInDb.id\n            ipoInDb = None\n            try:\n                ipoInDb = db(db.ipo_info.company_id ==company_id).select().first()\n            except Exception as e:\n                print "Error: Issues getting ipo info from db"\n                print type(e)\n                print e\n            if not ipoInDb: #Save new IPO\n                db.ipo_info.insert(company_id=company_id,data_source_id=data_source_id,\n                    date_week=date_week,intended_ticker=company_ticker)\n            else: #Update IPO info \n                ipoInDb.update_record(data_source_id=data_source_id,date_week=date_week,intended_ticker=company_ticker)\n\n\n\ndef submit_keyword_input():\n    variables={}\n    if request.vars.post_form == "submit":\n        variables[\'keyWords\'] = request.vars.text_input\n    elif request.vars.post_form =="match_all":\n        variables[\'match_all\'] = "true"\n    redirect(URL(\'matcher\',vars=variables))\n\n\n@cache.action()\ndef download():\n    """\n    allows downloading of uploaded files\n    http://..../[app]/default/download/[filename]\n    """\n    return response.download(request, db)\n\n\ndef call():\n    """\n    exposes services. for example:\n    http://..../[app]/default/call/jsonrpc\n    decorate with @services.jsonrpc the functions to expose\n    supports xml, json, xmlrpc, jsonrpc, amfrpc, rss, csv\n    """\n    return service()\n\n\n\nresponse._vars=response._caller(matcher)\n'
p7
sS'snapshot'
p8
(dp9
sS'traceback'
p10
S'Traceback (most recent call last):\n  File "/Users/Brandon/Develop/ipo_web2py/gluon/restricted.py", line 227, in restricted\n    exec ccode in environment\n  File "/Users/Brandon/Develop/ipo_web2py/applications/ipos/controllers/default.py", line 177, in <module>\n  File "/Users/Brandon/Develop/ipo_web2py/gluon/globals.py", line 417, in <lambda>\n    self._caller = lambda f: f()\n  File "/Users/Brandon/Develop/ipo_web2py/applications/ipos/controllers/default.py", line 42, in matcher\n    companyData = getCompanyData(ipos)\n  File "/Users/Brandon/Develop/ipo_web2py/applications/ipos/controllers/default.py", line 87, in getCompanyData\n    return getCompanyData(ipos)\n  File "/Users/Brandon/Develop/ipo_web2py/applications/ipos/controllers/default.py", line 87, in getCompanyData\n    return getCompanyData(ipos)\n  File "/Users/Brandon/Develop/ipo_web2py/applications/ipos/controllers/default.py", line 87, in getCompanyData\n    return getCompanyData(ipos)\n  File "/Users/Brandon/Develop/ipo_web2py/applications/ipos/controllers/default.py", line 87, in getCompanyData\n    return getCompanyData(ipos)\n  File "/Users/Brandon/Develop/ipo_web2py/applications/ipos/controllers/default.py", line 87, in getCompanyData\n    return getCompanyData(ipos)\n  File "/Users/Brandon/Develop/ipo_web2py/applications/ipos/controllers/default.py", line 87, in getCompanyData\n    return getCompanyData(ipos)\n  File "/Users/Brandon/Develop/ipo_web2py/applications/ipos/controllers/default.py", line 87, in getCompanyData\n    return getCompanyData(ipos)\n  File "/Users/Brandon/Develop/ipo_web2py/applications/ipos/controllers/default.py", line 87, in getCompanyData\n    return getCompanyData(ipos)\n  File "/Users/Brandon/Develop/ipo_web2py/applications/ipos/controllers/default.py", line 87, in getCompanyData\n    return getCompanyData(ipos)\n  File "/Users/Brandon/Develop/ipo_web2py/applications/ipos/controllers/default.py", line 87, in getCompanyData\n    return getCompanyData(ipos)\n  File "/Users/Brandon/Develop/ipo_web2py/applications/ipos/controllers/default.py", line 87, in getCompanyData\n    return getCompanyData(ipos)\n  File "/Users/Brandon/Develop/ipo_web2py/applications/ipos/controllers/default.py", line 87, in getCompanyData\n    return getCompanyData(ipos)\n  File "/Users/Brandon/Develop/ipo_web2py/applications/ipos/controllers/default.py", line 87, in getCompanyData\n    return getCompanyData(ipos)\n  File "/Users/Brandon/Develop/ipo_web2py/applications/ipos/controllers/default.py", line 87, in getCompanyData\n    return getCompanyData(ipos)\n  File "/Users/Brandon/Develop/ipo_web2py/applications/ipos/controllers/default.py", line 87, in getCompanyData\n    return getCompanyData(ipos)\n  File "/Users/Brandon/Develop/ipo_web2py/applications/ipos/controllers/default.py", line 87, in getCompanyData\n    return getCompanyData(ipos)\n  File "/Users/Brandon/Develop/ipo_web2py/applications/ipos/controllers/default.py", line 87, in getCompanyData\n    return getCompanyData(ipos)\n  File "/Users/Brandon/Develop/ipo_web2py/applications/ipos/controllers/default.py", line 87, in getCompanyData\n    return getCompanyData(ipos)\n  File "/Users/Brandon/Develop/ipo_web2py/applications/ipos/controllers/default.py", line 87, in getCompanyData\n    return getCompanyData(ipos)\n  File "/Users/Brandon/Develop/ipo_web2py/applications/ipos/controllers/default.py", line 87, in getCompanyData\n    return getCompanyData(ipos)\n  File "/Users/Brandon/Develop/ipo_web2py/applications/ipos/controllers/default.py", line 87, in getCompanyData\n    return getCompanyData(ipos)\n  File "/Users/Brandon/Develop/ipo_web2py/applications/ipos/controllers/default.py", line 87, in getCompanyData\n    return getCompanyData(ipos)\n  File "/Users/Brandon/Develop/ipo_web2py/applications/ipos/controllers/default.py", line 87, in getCompanyData\n    return getCompanyData(ipos)\n  File "/Users/Brandon/Develop/ipo_web2py/applications/ipos/controllers/default.py", line 87, in getCompanyData\n    return getCompanyData(ipos)\n  File "/Users/Brandon/Develop/ipo_web2py/applications/ipos/controllers/default.py", line 87, in getCompanyData\n    return getCompanyData(ipos)\n  File "/Users/Brandon/Develop/ipo_web2py/applications/ipos/controllers/default.py", line 87, in getCompanyData\n    return getCompanyData(ipos)\n  File "/Users/Brandon/Develop/ipo_web2py/applications/ipos/controllers/default.py", line 87, in getCompanyData\n    return getCompanyData(ipos)\n  File "/Users/Brandon/Develop/ipo_web2py/applications/ipos/controllers/default.py", line 87, in getCompanyData\n    return getCompanyData(ipos)\n  File "/Users/Brandon/Develop/ipo_web2py/applications/ipos/controllers/default.py", line 87, in getCompanyData\n    return getCompanyData(ipos)\n  File "/Users/Brandon/Develop/ipo_web2py/applications/ipos/controllers/default.py", line 87, in getCompanyData\n    return getCompanyData(ipos)\n  File "/Users/Brandon/Develop/ipo_web2py/applications/ipos/controllers/default.py", line 87, in getCompanyData\n    return getCompanyData(ipos)\n  File "/Users/Brandon/Develop/ipo_web2py/applications/ipos/controllers/default.py", line 87, in getCompanyData\n    return getCompanyData(ipos)\n  File "/Users/Brandon/Develop/ipo_web2py/applications/ipos/controllers/default.py", line 87, in getCompanyData\n    return getCompanyData(ipos)\n  File "/Users/Brandon/Develop/ipo_web2py/applications/ipos/controllers/default.py", line 87, in getCompanyData\n    return getCompanyData(ipos)\n  File "/Users/Brandon/Develop/ipo_web2py/applications/ipos/controllers/default.py", line 87, in getCompanyData\n    return getCompanyData(ipos)\n  File "/Users/Brandon/Develop/ipo_web2py/applications/ipos/controllers/default.py", line 87, in getCompanyData\n    return getCompanyData(ipos)\n  File "/Users/Brandon/Develop/ipo_web2py/applications/ipos/controllers/default.py", line 87, in getCompanyData\n    return getCompanyData(ipos)\n  File "/Users/Brandon/Develop/ipo_web2py/applications/ipos/controllers/default.py", line 87, in getCompanyData\n    return getCompanyData(ipos)\n  File "/Users/Brandon/Develop/ipo_web2py/applications/ipos/controllers/default.py", line 87, in getCompanyData\n    return getCompanyData(ipos)\n  File "/Users/Brandon/Develop/ipo_web2py/applications/ipos/controllers/default.py", line 87, in getCompanyData\n    return getCompanyData(ipos)\n  File "/Users/Brandon/Develop/ipo_web2py/applications/ipos/controllers/default.py", line 87, in getCompanyData\n    return getCompanyData(ipos)\n  File "/Users/Brandon/Develop/ipo_web2py/applications/ipos/controllers/default.py", line 87, in getCompanyData\n    return getCompanyData(ipos)\n  File "/Users/Brandon/Develop/ipo_web2py/applications/ipos/controllers/default.py", line 87, in getCompanyData\n    return getCompanyData(ipos)\n  File "/Users/Brandon/Develop/ipo_web2py/applications/ipos/controllers/default.py", line 87, in getCompanyData\n    return getCompanyData(ipos)\n  File "/Users/Brandon/Develop/ipo_web2py/applications/ipos/controllers/default.py", line 87, in getCompanyData\n    return getCompanyData(ipos)\n  File "/Users/Brandon/Develop/ipo_web2py/applications/ipos/controllers/default.py", line 87, in getCompanyData\n    return getCompanyData(ipos)\n  File "/Users/Brandon/Develop/ipo_web2py/applications/ipos/controllers/default.py", line 87, in getCompanyData\n    return getCompanyData(ipos)\n  File "/Users/Brandon/Develop/ipo_web2py/applications/ipos/controllers/default.py", line 87, in getCompanyData\n    return getCompanyData(ipos)\n  File "/Users/Brandon/Develop/ipo_web2py/applications/ipos/controllers/default.py", line 87, in getCompanyData\n    return getCompanyData(ipos)\n  File "/Users/Brandon/Develop/ipo_web2py/applications/ipos/controllers/default.py", line 87, in getCompanyData\n    return getCompanyData(ipos)\n  File "/Users/Brandon/Develop/ipo_web2py/applications/ipos/controllers/default.py", line 87, in getCompanyData\n    return getCompanyData(ipos)\n  File "/Users/Brandon/Develop/ipo_web2py/applications/ipos/controllers/default.py", line 87, in getCompanyData\n    return getCompanyData(ipos)\n  File "/Users/Brandon/Develop/ipo_web2py/applications/ipos/controllers/default.py", line 87, in getCompanyData\n    return getCompanyData(ipos)\n  File "/Users/Brandon/Develop/ipo_web2py/applications/ipos/controllers/default.py", line 87, in getCompanyData\n    return getCompanyData(ipos)\n  File "/Users/Brandon/Develop/ipo_web2py/applications/ipos/controllers/default.py", line 87, in getCompanyData\n    return getCompanyData(ipos)\n  File "/Users/Brandon/Develop/ipo_web2py/applications/ipos/controllers/default.py", line 87, in getCompanyData\n    return getCompanyData(ipos)\n  File "/Users/Brandon/Develop/ipo_web2py/applications/ipos/controllers/default.py", line 87, in getCompanyData\n    return getCompanyData(ipos)\n  File "/Users/Brandon/Develop/ipo_web2py/applications/ipos/controllers/default.py", line 87, in getCompanyData\n    return getCompanyData(ipos)\n  File "/Users/Brandon/Develop/ipo_web2py/applications/ipos/controllers/default.py", line 87, in getCompanyData\n    return getCompanyData(ipos)\n  File "/Users/Brandon/Develop/ipo_web2py/applications/ipos/controllers/default.py", line 87, in getCompanyData\n    return getCompanyData(ipos)\n  File "/Users/Brandon/Develop/ipo_web2py/applications/ipos/controllers/default.py", line 87, in getCompanyData\n    return getCompanyData(ipos)\n  File "/Users/Brandon/Develop/ipo_web2py/applications/ipos/controllers/default.py", line 87, in getCompanyData\n    return getCompanyData(ipos)\n  File "/Users/Brandon/Develop/ipo_web2py/applications/ipos/controllers/default.py", line 87, in getCompanyData\n    return getCompanyData(ipos)\n  File "/Users/Brandon/Develop/ipo_web2py/applications/ipos/controllers/default.py", line 87, in getCompanyData\n    return getCompanyData(ipos)\n  File "/Users/Brandon/Develop/ipo_web2py/applications/ipos/controllers/default.py", line 87, in getCompanyData\n    return getCompanyData(ipos)\n  File "/Users/Brandon/Develop/ipo_web2py/applications/ipos/controllers/default.py", line 87, in getCompanyData\n    return getCompanyData(ipos)\n  File "/Users/Brandon/Develop/ipo_web2py/applications/ipos/controllers/default.py", line 87, in getCompanyData\n    return getCompanyData(ipos)\n  File "/Users/Brandon/Develop/ipo_web2py/applications/ipos/controllers/default.py", line 87, in getCompanyData\n    return getCompanyData(ipos)\n  File "/Users/Brandon/Develop/ipo_web2py/applications/ipos/controllers/default.py", line 87, in getCompanyData\n    return getCompanyData(ipos)\n  File "/Users/Brandon/Develop/ipo_web2py/applications/ipos/controllers/default.py", line 87, in getCompanyData\n    return getCompanyData(ipos)\n  File "/Users/Brandon/Develop/ipo_web2py/applications/ipos/controllers/default.py", line 87, in getCompanyData\n    return getCompanyData(ipos)\n  File "/Users/Brandon/Develop/ipo_web2py/applications/ipos/controllers/default.py", line 87, in getCompanyData\n    return getCompanyData(ipos)\n  File "/Users/Brandon/Develop/ipo_web2py/applications/ipos/controllers/default.py", line 87, in getCompanyData\n    return getCompanyData(ipos)\n  File "/Users/Brandon/Develop/ipo_web2py/applications/ipos/controllers/default.py", line 87, in getCompanyData\n    return getCompanyData(ipos)\n  File "/Users/Brandon/Develop/ipo_web2py/applications/ipos/controllers/default.py", line 87, in getCompanyData\n    return getCompanyData(ipos)\n  File "/Users/Brandon/Develop/ipo_web2py/applications/ipos/controllers/default.py", line 87, in getCompanyData\n    return getCompanyData(ipos)\n  File "/Users/Brandon/Develop/ipo_web2py/applications/ipos/controllers/default.py", line 87, in getCompanyData\n    return getCompanyData(ipos)\n  File "/Users/Brandon/Develop/ipo_web2py/applications/ipos/controllers/default.py", line 87, in getCompanyData\n    return getCompanyData(ipos)\n  File "/Users/Brandon/Develop/ipo_web2py/applications/ipos/controllers/default.py", line 87, in getCompanyData\n    return getCompanyData(ipos)\n  File "/Users/Brandon/Develop/ipo_web2py/applications/ipos/controllers/default.py", line 87, in getCompanyData\n    return getCompanyData(ipos)\n  File "/Users/Brandon/Develop/ipo_web2py/applications/ipos/controllers/default.py", line 87, in getCompanyData\n    return getCompanyData(ipos)\n  File "/Users/Brandon/Develop/ipo_web2py/applications/ipos/controllers/default.py", line 87, in getCompanyData\n    return getCompanyData(ipos)\n  File "/Users/Brandon/Develop/ipo_web2py/applications/ipos/controllers/default.py", line 87, in getCompanyData\n    return getCompanyData(ipos)\n  File "/Users/Brandon/Develop/ipo_web2py/applications/ipos/controllers/default.py", line 87, in getCompanyData\n    return getCompanyData(ipos)\n  File "/Users/Brandon/Develop/ipo_web2py/applications/ipos/controllers/default.py", line 87, in getCompanyData\n    return getCompanyData(ipos)\n  File "/Users/Brandon/Develop/ipo_web2py/applications/ipos/controllers/default.py", line 87, in getCompanyData\n    return getCompanyData(ipos)\n  File "/Users/Brandon/Develop/ipo_web2py/applications/ipos/controllers/default.py", line 87, in getCompanyData\n    return getCompanyData(ipos)\n  File "/Users/Brandon/Develop/ipo_web2py/applications/ipos/controllers/default.py", line 87, in getCompanyData\n    return getCompanyData(ipos)\n  File "/Users/Brandon/Develop/ipo_web2py/applications/ipos/controllers/default.py", line 87, in getCompanyData\n    return getCompanyData(ipos)\n  File "/Users/Brandon/Develop/ipo_web2py/applications/ipos/controllers/default.py", line 87, in getCompanyData\n    return getCompanyData(ipos)\n  File "/Users/Brandon/Develop/ipo_web2py/applications/ipos/controllers/default.py", line 87, in getCompanyData\n    return getCompanyData(ipos)\n  File "/Users/Brandon/Develop/ipo_web2py/applications/ipos/controllers/default.py", line 87, in getCompanyData\n    return getCompanyData(ipos)\n  File "/Users/Brandon/Develop/ipo_web2py/applications/ipos/controllers/default.py", line 87, in getCompanyData\n    return getCompanyData(ipos)\n  File "/Users/Brandon/Develop/ipo_web2py/applications/ipos/controllers/default.py", line 87, in getCompanyData\n    return getCompanyData(ipos)\n  File "/Users/Brandon/Develop/ipo_web2py/applications/ipos/controllers/default.py", line 87, in getCompanyData\n    return getCompanyData(ipos)\n  File "/Users/Brandon/Develop/ipo_web2py/applications/ipos/controllers/default.py", line 87, in getCompanyData\n    return getCompanyData(ipos)\n  File "/Users/Brandon/Develop/ipo_web2py/applications/ipos/controllers/default.py", line 87, in getCompanyData\n    return getCompanyData(ipos)\n  File "/Users/Brandon/Develop/ipo_web2py/applications/ipos/controllers/default.py", line 87, in getCompanyData\n    return getCompanyData(ipos)\n  File "/Users/Brandon/Develop/ipo_web2py/applications/ipos/controllers/default.py", line 87, in getCompanyData\n    return getCompanyData(ipos)\n  File "/Users/Brandon/Develop/ipo_web2py/applications/ipos/controllers/default.py", line 87, in getCompanyData\n    return getCompanyData(ipos)\n  File "/Users/Brandon/Develop/ipo_web2py/applications/ipos/controllers/default.py", line 87, in getCompanyData\n    return getCompanyData(ipos)\n  File "/Users/Brandon/Develop/ipo_web2py/applications/ipos/controllers/default.py", line 87, in getCompanyData\n    return getCompanyData(ipos)\n  File "/Users/Brandon/Develop/ipo_web2py/applications/ipos/controllers/default.py", line 87, in getCompanyData\n    return getCompanyData(ipos)\n  File "/Users/Brandon/Develop/ipo_web2py/applications/ipos/controllers/default.py", line 87, in getCompanyData\n    return getCompanyData(ipos)\n  File "/Users/Brandon/Develop/ipo_web2py/applications/ipos/controllers/default.py", line 87, in getCompanyData\n    return getCompanyData(ipos)\n  File "/Users/Brandon/Develop/ipo_web2py/applications/ipos/controllers/default.py", line 87, in getCompanyData\n    return getCompanyData(ipos)\n  File "/Users/Brandon/Develop/ipo_web2py/applications/ipos/controllers/default.py", line 87, in getCompanyData\n    return getCompanyData(ipos)\n  File "/Users/Brandon/Develop/ipo_web2py/applications/ipos/controllers/default.py", line 87, in getCompanyData\n    return getCompanyData(ipos)\n  File "/Users/Brandon/Develop/ipo_web2py/applications/ipos/controllers/default.py", line 87, in getCompanyData\n    return getCompanyData(ipos)\n  File "/Users/Brandon/Develop/ipo_web2py/applications/ipos/controllers/default.py", line 87, in getCompanyData\n    return getCompanyData(ipos)\n  File "/Users/Brandon/Develop/ipo_web2py/applications/ipos/controllers/default.py", line 87, in getCompanyData\n    return getCompanyData(ipos)\n  File "/Users/Brandon/Develop/ipo_web2py/applications/ipos/controllers/default.py", line 87, in getCompanyData\n    return getCompanyData(ipos)\n  File "/Users/Brandon/Develop/ipo_web2py/applications/ipos/controllers/default.py", line 87, in getCompanyData\n    return getCompanyData(ipos)\n  File "/Users/Brandon/Develop/ipo_web2py/applications/ipos/controllers/default.py", line 87, in getCompanyData\n    return getCompanyData(ipos)\n  File "/Users/Brandon/Develop/ipo_web2py/applications/ipos/controllers/default.py", line 87, in getCompanyData\n    return getCompanyData(ipos)\n  File "/Users/Brandon/Develop/ipo_web2py/applications/ipos/controllers/default.py", line 87, in getCompanyData\n    return getCompanyData(ipos)\n  File "/Users/Brandon/Develop/ipo_web2py/applications/ipos/controllers/default.py", line 87, in getCompanyData\n    return getCompanyData(ipos)\n  File "/Users/Brandon/Develop/ipo_web2py/applications/ipos/controllers/default.py", line 87, in getCompanyData\n    return getCompanyData(ipos)\n  File "/Users/Brandon/Develop/ipo_web2py/applications/ipos/controllers/default.py", line 87, in getCompanyData\n    return getCompanyData(ipos)\n  File "/Users/Brandon/Develop/ipo_web2py/applications/ipos/controllers/default.py", line 87, in getCompanyData\n    return getCompanyData(ipos)\n  File "/Users/Brandon/Develop/ipo_web2py/applications/ipos/controllers/default.py", line 87, in getCompanyData\n    return getCompanyData(ipos)\n  File "/Users/Brandon/Develop/ipo_web2py/applications/ipos/controllers/default.py", line 87, in getCompanyData\n    return getCompanyData(ipos)\n  File "/Users/Brandon/Develop/ipo_web2py/applications/ipos/controllers/default.py", line 87, in getCompanyData\n    return getCompanyData(ipos)\n  File "/Users/Brandon/Develop/ipo_web2py/applications/ipos/controllers/default.py", line 87, in getCompanyData\n    return getCompanyData(ipos)\n  File "/Users/Brandon/Develop/ipo_web2py/applications/ipos/controllers/default.py", line 87, in getCompanyData\n    return getCompanyData(ipos)\n  File "/Users/Brandon/Develop/ipo_web2py/applications/ipos/controllers/default.py", line 87, in getCompanyData\n    return getCompanyData(ipos)\n  File "/Users/Brandon/Develop/ipo_web2py/applications/ipos/controllers/default.py", line 87, in getCompanyData\n    return getCompanyData(ipos)\n  File "/Users/Brandon/Develop/ipo_web2py/applications/ipos/controllers/default.py", line 87, in getCompanyData\n    return getCompanyData(ipos)\n  File "/Users/Brandon/Develop/ipo_web2py/applications/ipos/controllers/default.py", line 87, in getCompanyData\n    return getCompanyData(ipos)\n  File "/Users/Brandon/Develop/ipo_web2py/applications/ipos/controllers/default.py", line 87, in getCompanyData\n    return getCompanyData(ipos)\n  File "/Users/Brandon/Develop/ipo_web2py/applications/ipos/controllers/default.py", line 87, in getCompanyData\n    return getCompanyData(ipos)\n  File "/Users/Brandon/Develop/ipo_web2py/applications/ipos/controllers/default.py", line 87, in getCompanyData\n    return getCompanyData(ipos)\n  File "/Users/Brandon/Develop/ipo_web2py/applications/ipos/controllers/default.py", line 87, in getCompanyData\n    return getCompanyData(ipos)\n  File "/Users/Brandon/Develop/ipo_web2py/applications/ipos/controllers/default.py", line 87, in getCompanyData\n    return getCompanyData(ipos)\n  File "/Users/Brandon/Develop/ipo_web2py/applications/ipos/controllers/default.py", line 87, in getCompanyData\n    return getCompanyData(ipos)\n  File "/Users/Brandon/Develop/ipo_web2py/applications/ipos/controllers/default.py", line 87, in getCompanyData\n    return getCompanyData(ipos)\n  File "/Users/Brandon/Develop/ipo_web2py/applications/ipos/controllers/default.py", line 87, in getCompanyData\n    return getCompanyData(ipos)\n  File "/Users/Brandon/Develop/ipo_web2py/applications/ipos/controllers/default.py", line 87, in getCompanyData\n    return getCompanyData(ipos)\n  File "/Users/Brandon/Develop/ipo_web2py/applications/ipos/controllers/default.py", line 87, in getCompanyData\n    return getCompanyData(ipos)\n  File "/Users/Brandon/Develop/ipo_web2py/applications/ipos/controllers/default.py", line 87, in getCompanyData\n    return getCompanyData(ipos)\n  File "/Users/Brandon/Develop/ipo_web2py/applications/ipos/controllers/default.py", line 87, in getCompanyData\n    return getCompanyData(ipos)\n  File "/Users/Brandon/Develop/ipo_web2py/applications/ipos/controllers/default.py", line 87, in getCompanyData\n    return getCompanyData(ipos)\n  File "/Users/Brandon/Develop/ipo_web2py/applications/ipos/controllers/default.py", line 87, in getCompanyData\n    return getCompanyData(ipos)\n  File "/Users/Brandon/Develop/ipo_web2py/applications/ipos/controllers/default.py", line 87, in getCompanyData\n    return getCompanyData(ipos)\n  File "/Users/Brandon/Develop/ipo_web2py/applications/ipos/controllers/default.py", line 87, in getCompanyData\n    return getCompanyData(ipos)\n  File "/Users/Brandon/Develop/ipo_web2py/applications/ipos/controllers/default.py", line 87, in getCompanyData\n    return getCompanyData(ipos)\n  File "/Users/Brandon/Develop/ipo_web2py/applications/ipos/controllers/default.py", line 87, in getCompanyData\n    return getCompanyData(ipos)\n  File "/Users/Brandon/Develop/ipo_web2py/applications/ipos/controllers/default.py", line 87, in getCompanyData\n    return getCompanyData(ipos)\n  File "/Users/Brandon/Develop/ipo_web2py/applications/ipos/controllers/default.py", line 87, in getCompanyData\n    return getCompanyData(ipos)\n  File "/Users/Brandon/Develop/ipo_web2py/applications/ipos/controllers/default.py", line 87, in getCompanyData\n    return getCompanyData(ipos)\n  File "/Users/Brandon/Develop/ipo_web2py/applications/ipos/controllers/default.py", line 87, in getCompanyData\n    return getCompanyData(ipos)\n  File "/Users/Brandon/Develop/ipo_web2py/applications/ipos/controllers/default.py", line 87, in getCompanyData\n    return getCompanyData(ipos)\n  File "/Users/Brandon/Develop/ipo_web2py/applications/ipos/controllers/default.py", line 87, in getCompanyData\n    return getCompanyData(ipos)\n  File "/Users/Brandon/Develop/ipo_web2py/applications/ipos/controllers/default.py", line 87, in getCompanyData\n    return getCompanyData(ipos)\n  File "/Users/Brandon/Develop/ipo_web2py/applications/ipos/controllers/default.py", line 87, in getCompanyData\n    return getCompanyData(ipos)\n  File "/Users/Brandon/Develop/ipo_web2py/applications/ipos/controllers/default.py", line 87, in getCompanyData\n    return getCompanyData(ipos)\n  File "/Users/Brandon/Develop/ipo_web2py/applications/ipos/controllers/default.py", line 87, in getCompanyData\n    return getCompanyData(ipos)\n  File "/Users/Brandon/Develop/ipo_web2py/applications/ipos/controllers/default.py", line 87, in getCompanyData\n    return getCompanyData(ipos)\n  File "/Users/Brandon/Develop/ipo_web2py/applications/ipos/controllers/default.py", line 87, in getCompanyData\n    return getCompanyData(ipos)\n  File "/Users/Brandon/Develop/ipo_web2py/applications/ipos/controllers/default.py", line 87, in getCompanyData\n    return getCompanyData(ipos)\n  File "/Users/Brandon/Develop/ipo_web2py/applications/ipos/controllers/default.py", line 87, in getCompanyData\n    return getCompanyData(ipos)\n  File "/Users/Brandon/Develop/ipo_web2py/applications/ipos/controllers/default.py", line 87, in getCompanyData\n    return getCompanyData(ipos)\n  File "/Users/Brandon/Develop/ipo_web2py/applications/ipos/controllers/default.py", line 87, in getCompanyData\n    return getCompanyData(ipos)\n  File "/Users/Brandon/Develop/ipo_web2py/applications/ipos/controllers/default.py", line 87, in getCompanyData\n    return getCompanyData(ipos)\n  File "/Users/Brandon/Develop/ipo_web2py/applications/ipos/controllers/default.py", line 87, in getCompanyData\n    return getCompanyData(ipos)\n  File "/Users/Brandon/Develop/ipo_web2py/applications/ipos/controllers/default.py", line 87, in getCompanyData\n    return getCompanyData(ipos)\n  File "/Users/Brandon/Develop/ipo_web2py/applications/ipos/controllers/default.py", line 87, in getCompanyData\n    return getCompanyData(ipos)\n  File "/Users/Brandon/Develop/ipo_web2py/applications/ipos/controllers/default.py", line 87, in getCompanyData\n    return getCompanyData(ipos)\n  File "/Users/Brandon/Develop/ipo_web2py/applications/ipos/controllers/default.py", line 87, in getCompanyData\n    return getCompanyData(ipos)\n  File "/Users/Brandon/Develop/ipo_web2py/applications/ipos/controllers/default.py", line 87, in getCompanyData\n    return getCompanyData(ipos)\n  File "/Users/Brandon/Develop/ipo_web2py/applications/ipos/controllers/default.py", line 87, in getCompanyData\n    return getCompanyData(ipos)\n  File "/Users/Brandon/Develop/ipo_web2py/applications/ipos/controllers/default.py", line 87, in getCompanyData\n    return getCompanyData(ipos)\n  File "/Users/Brandon/Develop/ipo_web2py/applications/ipos/controllers/default.py", line 87, in getCompanyData\n    return getCompanyData(ipos)\n  File "/Users/Brandon/Develop/ipo_web2py/applications/ipos/controllers/default.py", line 87, in getCompanyData\n    return getCompanyData(ipos)\n  File "/Users/Brandon/Develop/ipo_web2py/applications/ipos/controllers/default.py", line 87, in getCompanyData\n    return getCompanyData(ipos)\n  File "/Users/Brandon/Develop/ipo_web2py/applications/ipos/controllers/default.py", line 87, in getCompanyData\n    return getCompanyData(ipos)\n  File "/Users/Brandon/Develop/ipo_web2py/applications/ipos/controllers/default.py", line 87, in getCompanyData\n    return getCompanyData(ipos)\n  File "/Users/Brandon/Develop/ipo_web2py/applications/ipos/controllers/default.py", line 87, in getCompanyData\n    return getCompanyData(ipos)\n  File "/Users/Brandon/Develop/ipo_web2py/applications/ipos/controllers/default.py", line 87, in getCompanyData\n    return getCompanyData(ipos)\n  File "/Users/Brandon/Develop/ipo_web2py/applications/ipos/controllers/default.py", line 87, in getCompanyData\n    return getCompanyData(ipos)\n  File "/Users/Brandon/Develop/ipo_web2py/applications/ipos/controllers/default.py", line 87, in getCompanyData\n    return getCompanyData(ipos)\n  File "/Users/Brandon/Develop/ipo_web2py/applications/ipos/controllers/default.py", line 87, in getCompanyData\n    return getCompanyData(ipos)\n  File "/Users/Brandon/Develop/ipo_web2py/applications/ipos/controllers/default.py", line 87, in getCompanyData\n    return getCompanyData(ipos)\n  File "/Users/Brandon/Develop/ipo_web2py/applications/ipos/controllers/default.py", line 87, in getCompanyData\n    return getCompanyData(ipos)\n  File "/Users/Brandon/Develop/ipo_web2py/applications/ipos/controllers/default.py", line 87, in getCompanyData\n    return getCompanyData(ipos)\n  File "/Users/Brandon/Develop/ipo_web2py/applications/ipos/controllers/default.py", line 87, in getCompanyData\n    return getCompanyData(ipos)\n  File "/Users/Brandon/Develop/ipo_web2py/applications/ipos/controllers/default.py", line 87, in getCompanyData\n    return getCompanyData(ipos)\n  File "/Users/Brandon/Develop/ipo_web2py/applications/ipos/controllers/default.py", line 87, in getCompanyData\n    return getCompanyData(ipos)\n  File "/Users/Brandon/Develop/ipo_web2py/applications/ipos/controllers/default.py", line 87, in getCompanyData\n    return getCompanyData(ipos)\n  File "/Users/Brandon/Develop/ipo_web2py/applications/ipos/controllers/default.py", line 87, in getCompanyData\n    return getCompanyData(ipos)\n  File "/Users/Brandon/Develop/ipo_web2py/applications/ipos/controllers/default.py", line 87, in getCompanyData\n    return getCompanyData(ipos)\n  File "/Users/Brandon/Develop/ipo_web2py/applications/ipos/controllers/default.py", line 87, in getCompanyData\n    return getCompanyData(ipos)\n  File "/Users/Brandon/Develop/ipo_web2py/applications/ipos/controllers/default.py", line 87, in getCompanyData\n    return getCompanyData(ipos)\n  File "/Users/Brandon/Develop/ipo_web2py/applications/ipos/controllers/default.py", line 87, in getCompanyData\n    return getCompanyData(ipos)\n  File "/Users/Brandon/Develop/ipo_web2py/applications/ipos/controllers/default.py", line 87, in getCompanyData\n    return getCompanyData(ipos)\n  File "/Users/Brandon/Develop/ipo_web2py/applications/ipos/controllers/default.py", line 87, in getCompanyData\n    return getCompanyData(ipos)\n  File "/Users/Brandon/Develop/ipo_web2py/applications/ipos/controllers/default.py", line 87, in getCompanyData\n    return getCompanyData(ipos)\n  File "/Users/Brandon/Develop/ipo_web2py/applications/ipos/controllers/default.py", line 87, in getCompanyData\n    return getCompanyData(ipos)\n  File "/Users/Brandon/Develop/ipo_web2py/applications/ipos/controllers/default.py", line 87, in getCompanyData\n    return getCompanyData(ipos)\n  File "/Users/Brandon/Develop/ipo_web2py/applications/ipos/controllers/default.py", line 87, in getCompanyData\n    return getCompanyData(ipos)\n  File "/Users/Brandon/Develop/ipo_web2py/applications/ipos/controllers/default.py", line 87, in getCompanyData\n    return getCompanyData(ipos)\n  File "/Users/Brandon/Develop/ipo_web2py/applications/ipos/controllers/default.py", line 87, in getCompanyData\n    return getCompanyData(ipos)\n  File "/Users/Brandon/Develop/ipo_web2py/applications/ipos/controllers/default.py", line 87, in getCompanyData\n    return getCompanyData(ipos)\n  File "/Users/Brandon/Develop/ipo_web2py/applications/ipos/controllers/default.py", line 87, in getCompanyData\n    return getCompanyData(ipos)\n  File "/Users/Brandon/Develop/ipo_web2py/applications/ipos/controllers/default.py", line 87, in getCompanyData\n    return getCompanyData(ipos)\n  File "/Users/Brandon/Develop/ipo_web2py/applications/ipos/controllers/default.py", line 87, in getCompanyData\n    return getCompanyData(ipos)\n  File "/Users/Brandon/Develop/ipo_web2py/applications/ipos/controllers/default.py", line 87, in getCompanyData\n    return getCompanyData(ipos)\n  File "/Users/Brandon/Develop/ipo_web2py/applications/ipos/controllers/default.py", line 87, in getCompanyData\n    return getCompanyData(ipos)\n  File "/Users/Brandon/Develop/ipo_web2py/applications/ipos/controllers/default.py", line 87, in getCompanyData\n    return getCompanyData(ipos)\n  File "/Users/Brandon/Develop/ipo_web2py/applications/ipos/controllers/default.py", line 87, in getCompanyData\n    return getCompanyData(ipos)\n  File "/Users/Brandon/Develop/ipo_web2py/applications/ipos/controllers/default.py", line 87, in getCompanyData\n    return getCompanyData(ipos)\n  File "/Users/Brandon/Develop/ipo_web2py/applications/ipos/controllers/default.py", line 87, in getCompanyData\n    return getCompanyData(ipos)\n  File "/Users/Brandon/Develop/ipo_web2py/applications/ipos/controllers/default.py", line 87, in getCompanyData\n    return getCompanyData(ipos)\n  File "/Users/Brandon/Develop/ipo_web2py/applications/ipos/controllers/default.py", line 87, in getCompanyData\n    return getCompanyData(ipos)\n  File "/Users/Brandon/Develop/ipo_web2py/applications/ipos/controllers/default.py", line 87, in getCompanyData\n    return getCompanyData(ipos)\n  File "/Users/Brandon/Develop/ipo_web2py/applications/ipos/controllers/default.py", line 87, in getCompanyData\n    return getCompanyData(ipos)\n  File "/Users/Brandon/Develop/ipo_web2py/applications/ipos/controllers/default.py", line 87, in getCompanyData\n    return getCompanyData(ipos)\n  File "/Users/Brandon/Develop/ipo_web2py/applications/ipos/controllers/default.py", line 87, in getCompanyData\n    return getCompanyData(ipos)\n  File "/Users/Brandon/Develop/ipo_web2py/applications/ipos/controllers/default.py", line 87, in getCompanyData\n    return getCompanyData(ipos)\n  File "/Users/Brandon/Develop/ipo_web2py/applications/ipos/controllers/default.py", line 87, in getCompanyData\n    return getCompanyData(ipos)\n  File "/Users/Brandon/Develop/ipo_web2py/applications/ipos/controllers/default.py", line 87, in getCompanyData\n    return getCompanyData(ipos)\n  File "/Users/Brandon/Develop/ipo_web2py/applications/ipos/controllers/default.py", line 87, in getCompanyData\n    return getCompanyData(ipos)\n  File "/Users/Brandon/Develop/ipo_web2py/applications/ipos/controllers/default.py", line 87, in getCompanyData\n    return getCompanyData(ipos)\n  File "/Users/Brandon/Develop/ipo_web2py/applications/ipos/controllers/default.py", line 87, in getCompanyData\n    return getCompanyData(ipos)\n  File "/Users/Brandon/Develop/ipo_web2py/applications/ipos/controllers/default.py", line 87, in getCompanyData\n    return getCompanyData(ipos)\n  File "/Users/Brandon/Develop/ipo_web2py/applications/ipos/controllers/default.py", line 87, in getCompanyData\n    return getCompanyData(ipos)\n  File "/Users/Brandon/Develop/ipo_web2py/applications/ipos/controllers/default.py", line 87, in getCompanyData\n    return getCompanyData(ipos)\n  File "/Users/Brandon/Develop/ipo_web2py/applications/ipos/controllers/default.py", line 87, in getCompanyData\n    return getCompanyData(ipos)\n  File "/Users/Brandon/Develop/ipo_web2py/applications/ipos/controllers/default.py", line 87, in getCompanyData\n    return getCompanyData(ipos)\n  File "/Users/Brandon/Develop/ipo_web2py/applications/ipos/controllers/default.py", line 87, in getCompanyData\n    return getCompanyData(ipos)\n  File "/Users/Brandon/Develop/ipo_web2py/applications/ipos/controllers/default.py", line 87, in getCompanyData\n    return getCompanyData(ipos)\n  File "/Users/Brandon/Develop/ipo_web2py/applications/ipos/controllers/default.py", line 87, in getCompanyData\n    return getCompanyData(ipos)\n  File "/Users/Brandon/Develop/ipo_web2py/applications/ipos/controllers/default.py", line 87, in getCompanyData\n    return getCompanyData(ipos)\n  File "/Users/Brandon/Develop/ipo_web2py/applications/ipos/controllers/default.py", line 87, in getCompanyData\n    return getCompanyData(ipos)\n  File "/Users/Brandon/Develop/ipo_web2py/applications/ipos/controllers/default.py", line 87, in getCompanyData\n    return getCompanyData(ipos)\n  File "/Users/Brandon/Develop/ipo_web2py/applications/ipos/controllers/default.py", line 87, in getCompanyData\n    return getCompanyData(ipos)\n  File "/Users/Brandon/Develop/ipo_web2py/applications/ipos/controllers/default.py", line 87, in getCompanyData\n    return getCompanyData(ipos)\n  File "/Users/Brandon/Develop/ipo_web2py/applications/ipos/controllers/default.py", line 87, in getCompanyData\n    return getCompanyData(ipos)\n  File "/Users/Brandon/Develop/ipo_web2py/applications/ipos/controllers/default.py", line 87, in getCompanyData\n    return getCompanyData(ipos)\n  File "/Users/Brandon/Develop/ipo_web2py/applications/ipos/controllers/default.py", line 87, in getCompanyData\n    return getCompanyData(ipos)\n  File "/Users/Brandon/Develop/ipo_web2py/applications/ipos/controllers/default.py", line 87, in getCompanyData\n    return getCompanyData(ipos)\n  File "/Users/Brandon/Develop/ipo_web2py/applications/ipos/controllers/default.py", line 87, in getCompanyData\n    return getCompanyData(ipos)\n  File "/Users/Brandon/Develop/ipo_web2py/applications/ipos/controllers/default.py", line 87, in getCompanyData\n    return getCompanyData(ipos)\n  File "/Users/Brandon/Develop/ipo_web2py/applications/ipos/controllers/default.py", line 87, in getCompanyData\n    return getCompanyData(ipos)\n  File "/Users/Brandon/Develop/ipo_web2py/applications/ipos/controllers/default.py", line 87, in getCompanyData\n    return getCompanyData(ipos)\n  File "/Users/Brandon/Develop/ipo_web2py/applications/ipos/controllers/default.py", line 87, in getCompanyData\n    return getCompanyData(ipos)\n  File "/Users/Brandon/Develop/ipo_web2py/applications/ipos/controllers/default.py", line 87, in getCompanyData\n    return getCompanyData(ipos)\n  File "/Users/Brandon/Develop/ipo_web2py/applications/ipos/controllers/default.py", line 87, in getCompanyData\n    return getCompanyData(ipos)\n  File "/Users/Brandon/Develop/ipo_web2py/applications/ipos/controllers/default.py", line 87, in getCompanyData\n    return getCompanyData(ipos)\n  File "/Users/Brandon/Develop/ipo_web2py/applications/ipos/controllers/default.py", line 87, in getCompanyData\n    return getCompanyData(ipos)\n  File "/Users/Brandon/Develop/ipo_web2py/applications/ipos/controllers/default.py", line 87, in getCompanyData\n    return getCompanyData(ipos)\n  File "/Users/Brandon/Develop/ipo_web2py/applications/ipos/controllers/default.py", line 87, in getCompanyData\n    return getCompanyData(ipos)\n  File "/Users/Brandon/Develop/ipo_web2py/applications/ipos/controllers/default.py", line 87, in getCompanyData\n    return getCompanyData(ipos)\n  File "/Users/Brandon/Develop/ipo_web2py/applications/ipos/controllers/default.py", line 87, in getCompanyData\n    return getCompanyData(ipos)\n  File "/Users/Brandon/Develop/ipo_web2py/applications/ipos/controllers/default.py", line 87, in getCompanyData\n    return getCompanyData(ipos)\n  File "/Users/Brandon/Develop/ipo_web2py/applications/ipos/controllers/default.py", line 87, in getCompanyData\n    return getCompanyData(ipos)\n  File "/Users/Brandon/Develop/ipo_web2py/applications/ipos/controllers/default.py", line 87, in getCompanyData\n    return getCompanyData(ipos)\n  File "/Users/Brandon/Develop/ipo_web2py/applications/ipos/controllers/default.py", line 87, in getCompanyData\n    return getCompanyData(ipos)\n  File "/Users/Brandon/Develop/ipo_web2py/applications/ipos/controllers/default.py", line 87, in getCompanyData\n    return getCompanyData(ipos)\n  File "/Users/Brandon/Develop/ipo_web2py/applications/ipos/controllers/default.py", line 87, in getCompanyData\n    return getCompanyData(ipos)\n  File "/Users/Brandon/Develop/ipo_web2py/applications/ipos/controllers/default.py", line 87, in getCompanyData\n    return getCompanyData(ipos)\n  File "/Users/Brandon/Develop/ipo_web2py/applications/ipos/controllers/default.py", line 87, in getCompanyData\n    return getCompanyData(ipos)\n  File "/Users/Brandon/Develop/ipo_web2py/applications/ipos/controllers/default.py", line 87, in getCompanyData\n    return getCompanyData(ipos)\n  File "/Users/Brandon/Develop/ipo_web2py/applications/ipos/controllers/default.py", line 87, in getCompanyData\n    return getCompanyData(ipos)\n  File "/Users/Brandon/Develop/ipo_web2py/applications/ipos/controllers/default.py", line 87, in getCompanyData\n    return getCompanyData(ipos)\n  File "/Users/Brandon/Develop/ipo_web2py/applications/ipos/controllers/default.py", line 87, in getCompanyData\n    return getCompanyData(ipos)\n  File "/Users/Brandon/Develop/ipo_web2py/applications/ipos/controllers/default.py", line 87, in getCompanyData\n    return getCompanyData(ipos)\n  File "/Users/Brandon/Develop/ipo_web2py/applications/ipos/controllers/default.py", line 87, in getCompanyData\n    return getCompanyData(ipos)\n  File "/Users/Brandon/Develop/ipo_web2py/applications/ipos/controllers/default.py", line 87, in getCompanyData\n    return getCompanyData(ipos)\n  File "/Users/Brandon/Develop/ipo_web2py/applications/ipos/controllers/default.py", line 87, in getCompanyData\n    return getCompanyData(ipos)\n  File "/Users/Brandon/Develop/ipo_web2py/applications/ipos/controllers/default.py", line 87, in getCompanyData\n    return getCompanyData(ipos)\n  File "/Users/Brandon/Develop/ipo_web2py/applications/ipos/controllers/default.py", line 87, in getCompanyData\n    return getCompanyData(ipos)\n  File "/Users/Brandon/Develop/ipo_web2py/applications/ipos/controllers/default.py", line 87, in getCompanyData\n    return getCompanyData(ipos)\n  File "/Users/Brandon/Develop/ipo_web2py/applications/ipos/controllers/default.py", line 87, in getCompanyData\n    return getCompanyData(ipos)\n  File "/Users/Brandon/Develop/ipo_web2py/applications/ipos/controllers/default.py", line 87, in getCompanyData\n    return getCompanyData(ipos)\n  File "/Users/Brandon/Develop/ipo_web2py/applications/ipos/controllers/default.py", line 87, in getCompanyData\n    return getCompanyData(ipos)\n  File "/Users/Brandon/Develop/ipo_web2py/applications/ipos/controllers/default.py", line 87, in getCompanyData\n    return getCompanyData(ipos)\n  File "/Users/Brandon/Develop/ipo_web2py/applications/ipos/controllers/default.py", line 87, in getCompanyData\n    return getCompanyData(ipos)\n  File "/Users/Brandon/Develop/ipo_web2py/applications/ipos/controllers/default.py", line 87, in getCompanyData\n    return getCompanyData(ipos)\n  File "/Users/Brandon/Develop/ipo_web2py/applications/ipos/controllers/default.py", line 87, in getCompanyData\n    return getCompanyData(ipos)\n  File "/Users/Brandon/Develop/ipo_web2py/applications/ipos/controllers/default.py", line 87, in getCompanyData\n    return getCompanyData(ipos)\n  File "/Users/Brandon/Develop/ipo_web2py/applications/ipos/controllers/default.py", line 87, in getCompanyData\n    return getCompanyData(ipos)\n  File "/Users/Brandon/Develop/ipo_web2py/applications/ipos/controllers/default.py", line 87, in getCompanyData\n    return getCompanyData(ipos)\n  File "/Users/Brandon/Develop/ipo_web2py/applications/ipos/controllers/default.py", line 87, in getCompanyData\n    return getCompanyData(ipos)\n  File "/Users/Brandon/Develop/ipo_web2py/applications/ipos/controllers/default.py", line 87, in getCompanyData\n    return getCompanyData(ipos)\n  File "/Users/Brandon/Develop/ipo_web2py/applications/ipos/controllers/default.py", line 87, in getCompanyData\n    return getCompanyData(ipos)\n  File "/Users/Brandon/Develop/ipo_web2py/applications/ipos/controllers/default.py", line 87, in getCompanyData\n    return getCompanyData(ipos)\n  File "/Users/Brandon/Develop/ipo_web2py/applications/ipos/controllers/default.py", line 87, in getCompanyData\n    return getCompanyData(ipos)\n  File "/Users/Brandon/Develop/ipo_web2py/applications/ipos/controllers/default.py", line 87, in getCompanyData\n    return getCompanyData(ipos)\n  File "/Users/Brandon/Develop/ipo_web2py/applications/ipos/controllers/default.py", line 87, in getCompanyData\n    return getCompanyData(ipos)\n  File "/Users/Brandon/Develop/ipo_web2py/applications/ipos/controllers/default.py", line 87, in getCompanyData\n    return getCompanyData(ipos)\n  File "/Users/Brandon/Develop/ipo_web2py/applications/ipos/controllers/default.py", line 87, in getCompanyData\n    return getCompanyData(ipos)\n  File "/Users/Brandon/Develop/ipo_web2py/applications/ipos/controllers/default.py", line 87, in getCompanyData\n    return getCompanyData(ipos)\n  File "/Users/Brandon/Develop/ipo_web2py/applications/ipos/controllers/default.py", line 87, in getCompanyData\n    return getCompanyData(ipos)\n  File "/Users/Brandon/Develop/ipo_web2py/applications/ipos/controllers/default.py", line 87, in getCompanyData\n    return getCompanyData(ipos)\n  File "/Users/Brandon/Develop/ipo_web2py/applications/ipos/controllers/default.py", line 87, in getCompanyData\n    return getCompanyData(ipos)\n  File "/Users/Brandon/Develop/ipo_web2py/applications/ipos/controllers/default.py", line 87, in getCompanyData\n    return getCompanyData(ipos)\n  File "/Users/Brandon/Develop/ipo_web2py/applications/ipos/controllers/default.py", line 87, in getCompanyData\n    return getCompanyData(ipos)\n  File "/Users/Brandon/Develop/ipo_web2py/applications/ipos/controllers/default.py", line 87, in getCompanyData\n    return getCompanyData(ipos)\n  File "/Users/Brandon/Develop/ipo_web2py/applications/ipos/controllers/default.py", line 87, in getCompanyData\n    return getCompanyData(ipos)\n  File "/Users/Brandon/Develop/ipo_web2py/applications/ipos/controllers/default.py", line 87, in getCompanyData\n    return getCompanyData(ipos)\n  File "/Users/Brandon/Develop/ipo_web2py/applications/ipos/controllers/default.py", line 87, in getCompanyData\n    return getCompanyData(ipos)\n  File "/Users/Brandon/Develop/ipo_web2py/applications/ipos/controllers/default.py", line 87, in getCompanyData\n    return getCompanyData(ipos)\n  File "/Users/Brandon/Develop/ipo_web2py/applications/ipos/controllers/default.py", line 87, in getCompanyData\n    return getCompanyData(ipos)\n  File "/Users/Brandon/Develop/ipo_web2py/applications/ipos/controllers/default.py", line 87, in getCompanyData\n    return getCompanyData(ipos)\n  File "/Users/Brandon/Develop/ipo_web2py/applications/ipos/controllers/default.py", line 87, in getCompanyData\n    return getCompanyData(ipos)\n  File "/Users/Brandon/Develop/ipo_web2py/applications/ipos/controllers/default.py", line 87, in getCompanyData\n    return getCompanyData(ipos)\n  File "/Users/Brandon/Develop/ipo_web2py/applications/ipos/controllers/default.py", line 87, in getCompanyData\n    return getCompanyData(ipos)\n  File "/Users/Brandon/Develop/ipo_web2py/applications/ipos/controllers/default.py", line 87, in getCompanyData\n    return getCompanyData(ipos)\n  File "/Users/Brandon/Develop/ipo_web2py/applications/ipos/controllers/default.py", line 87, in getCompanyData\n    return getCompanyData(ipos)\n  File "/Users/Brandon/Develop/ipo_web2py/applications/ipos/controllers/default.py", line 87, in getCompanyData\n    return getCompanyData(ipos)\n  File "/Users/Brandon/Develop/ipo_web2py/applications/ipos/controllers/default.py", line 87, in getCompanyData\n    return getCompanyData(ipos)\n  File "/Users/Brandon/Develop/ipo_web2py/applications/ipos/controllers/default.py", line 87, in getCompanyData\n    return getCompanyData(ipos)\n  File "/Users/Brandon/Develop/ipo_web2py/applications/ipos/controllers/default.py", line 87, in getCompanyData\n    return getCompanyData(ipos)\n  File "/Users/Brandon/Develop/ipo_web2py/applications/ipos/controllers/default.py", line 87, in getCompanyData\n    return getCompanyData(ipos)\n  File "/Users/Brandon/Develop/ipo_web2py/applications/ipos/controllers/default.py", line 87, in getCompanyData\n    return getCompanyData(ipos)\n  File "/Users/Brandon/Develop/ipo_web2py/applications/ipos/controllers/default.py", line 87, in getCompanyData\n    return getCompanyData(ipos)\n  File "/Users/Brandon/Develop/ipo_web2py/applications/ipos/controllers/default.py", line 87, in getCompanyData\n    return getCompanyData(ipos)\n  File "/Users/Brandon/Develop/ipo_web2py/applications/ipos/controllers/default.py", line 87, in getCompanyData\n    return getCompanyData(ipos)\n  File "/Users/Brandon/Develop/ipo_web2py/applications/ipos/controllers/default.py", line 87, in getCompanyData\n    return getCompanyData(ipos)\n  File "/Users/Brandon/Develop/ipo_web2py/applications/ipos/controllers/default.py", line 87, in getCompanyData\n    return getCompanyData(ipos)\n  File "/Users/Brandon/Develop/ipo_web2py/applications/ipos/controllers/default.py", line 87, in getCompanyData\n    return getCompanyData(ipos)\n  File "/Users/Brandon/Develop/ipo_web2py/applications/ipos/controllers/default.py", line 87, in getCompanyData\n    return getCompanyData(ipos)\n  File "/Users/Brandon/Develop/ipo_web2py/applications/ipos/controllers/default.py", line 87, in getCompanyData\n    return getCompanyData(ipos)\n  File "/Users/Brandon/Develop/ipo_web2py/applications/ipos/controllers/default.py", line 87, in getCompanyData\n    return getCompanyData(ipos)\n  File "/Users/Brandon/Develop/ipo_web2py/applications/ipos/controllers/default.py", line 87, in getCompanyData\n    return getCompanyData(ipos)\n  File "/Users/Brandon/Develop/ipo_web2py/applications/ipos/controllers/default.py", line 87, in getCompanyData\n    return getCompanyData(ipos)\n  File "/Users/Brandon/Develop/ipo_web2py/applications/ipos/controllers/default.py", line 87, in getCompanyData\n    return getCompanyData(ipos)\n  File "/Users/Brandon/Develop/ipo_web2py/applications/ipos/controllers/default.py", line 87, in getCompanyData\n    return getCompanyData(ipos)\n  File "/Users/Brandon/Develop/ipo_web2py/applications/ipos/controllers/default.py", line 87, in getCompanyData\n    return getCompanyData(ipos)\n  File "/Users/Brandon/Develop/ipo_web2py/applications/ipos/controllers/default.py", line 87, in getCompanyData\n    return getCompanyData(ipos)\n  File "/Users/Brandon/Develop/ipo_web2py/applications/ipos/controllers/default.py", line 87, in getCompanyData\n    return getCompanyData(ipos)\n  File "/Users/Brandon/Develop/ipo_web2py/applications/ipos/controllers/default.py", line 87, in getCompanyData\n    return getCompanyData(ipos)\n  File "/Users/Brandon/Develop/ipo_web2py/applications/ipos/controllers/default.py", line 87, in getCompanyData\n    return getCompanyData(ipos)\n  File "/Users/Brandon/Develop/ipo_web2py/applications/ipos/controllers/default.py", line 87, in getCompanyData\n    return getCompanyData(ipos)\n  File "/Users/Brandon/Develop/ipo_web2py/applications/ipos/controllers/default.py", line 87, in getCompanyData\n    return getCompanyData(ipos)\n  File "/Users/Brandon/Develop/ipo_web2py/applications/ipos/controllers/default.py", line 87, in getCompanyData\n    return getCompanyData(ipos)\n  File "/Users/Brandon/Develop/ipo_web2py/applications/ipos/controllers/default.py", line 87, in getCompanyData\n    return getCompanyData(ipos)\n  File "/Users/Brandon/Develop/ipo_web2py/applications/ipos/controllers/default.py", line 87, in getCompanyData\n    return getCompanyData(ipos)\n  File "/Users/Brandon/Develop/ipo_web2py/applications/ipos/controllers/default.py", line 87, in getCompanyData\n    return getCompanyData(ipos)\n  File "/Users/Brandon/Develop/ipo_web2py/applications/ipos/controllers/default.py", line 87, in getCompanyData\n    return getCompanyData(ipos)\n  File "/Users/Brandon/Develop/ipo_web2py/applications/ipos/controllers/default.py", line 87, in getCompanyData\n    return getCompanyData(ipos)\n  File "/Users/Brandon/Develop/ipo_web2py/applications/ipos/controllers/default.py", line 87, in getCompanyData\n    return getCompanyData(ipos)\n  File "/Users/Brandon/Develop/ipo_web2py/applications/ipos/controllers/default.py", line 87, in getCompanyData\n    return getCompanyData(ipos)\n  File "/Users/Brandon/Develop/ipo_web2py/applications/ipos/controllers/default.py", line 87, in getCompanyData\n    return getCompanyData(ipos)\n  File "/Users/Brandon/Develop/ipo_web2py/applications/ipos/controllers/default.py", line 87, in getCompanyData\n    return getCompanyData(ipos)\n  File "/Users/Brandon/Develop/ipo_web2py/applications/ipos/controllers/default.py", line 87, in getCompanyData\n    return getCompanyData(ipos)\n  File "/Users/Brandon/Develop/ipo_web2py/applications/ipos/controllers/default.py", line 87, in getCompanyData\n    return getCompanyData(ipos)\n  File "/Users/Brandon/Develop/ipo_web2py/applications/ipos/controllers/default.py", line 87, in getCompanyData\n    return getCompanyData(ipos)\n  File "/Users/Brandon/Develop/ipo_web2py/applications/ipos/controllers/default.py", line 87, in getCompanyData\n    return getCompanyData(ipos)\n  File "/Users/Brandon/Develop/ipo_web2py/applications/ipos/controllers/default.py", line 87, in getCompanyData\n    return getCompanyData(ipos)\n  File "/Users/Brandon/Develop/ipo_web2py/applications/ipos/controllers/default.py", line 87, in getCompanyData\n    return getCompanyData(ipos)\n  File "/Users/Brandon/Develop/ipo_web2py/applications/ipos/controllers/default.py", line 87, in getCompanyData\n    return getCompanyData(ipos)\n  File "/Users/Brandon/Develop/ipo_web2py/applications/ipos/controllers/default.py", line 87, in getCompanyData\n    return getCompanyData(ipos)\n  File "/Users/Brandon/Develop/ipo_web2py/applications/ipos/controllers/default.py", line 87, in getCompanyData\n    return getCompanyData(ipos)\n  File "/Users/Brandon/Develop/ipo_web2py/applications/ipos/controllers/default.py", line 87, in getCompanyData\n    return getCompanyData(ipos)\n  File "/Users/Brandon/Develop/ipo_web2py/applications/ipos/controllers/default.py", line 87, in getCompanyData\n    return getCompanyData(ipos)\n  File "/Users/Brandon/Develop/ipo_web2py/applications/ipos/controllers/default.py", line 87, in getCompanyData\n    return getCompanyData(ipos)\n  File "/Users/Brandon/Develop/ipo_web2py/applications/ipos/controllers/default.py", line 87, in getCompanyData\n    return getCompanyData(ipos)\n  File "/Users/Brandon/Develop/ipo_web2py/applications/ipos/controllers/default.py", line 87, in getCompanyData\n    return getCompanyData(ipos)\n  File "/Users/Brandon/Develop/ipo_web2py/applications/ipos/controllers/default.py", line 87, in getCompanyData\n    return getCompanyData(ipos)\n  File "/Users/Brandon/Develop/ipo_web2py/applications/ipos/controllers/default.py", line 87, in getCompanyData\n    return getCompanyData(ipos)\n  File "/Users/Brandon/Develop/ipo_web2py/applications/ipos/controllers/default.py", line 87, in getCompanyData\n    return getCompanyData(ipos)\n  File "/Users/Brandon/Develop/ipo_web2py/applications/ipos/controllers/default.py", line 87, in getCompanyData\n    return getCompanyData(ipos)\n  File "/Users/Brandon/Develop/ipo_web2py/applications/ipos/controllers/default.py", line 87, in getCompanyData\n    return getCompanyData(ipos)\n  File "/Users/Brandon/Develop/ipo_web2py/applications/ipos/controllers/default.py", line 87, in getCompanyData\n    return getCompanyData(ipos)\n  File "/Users/Brandon/Develop/ipo_web2py/applications/ipos/controllers/default.py", line 87, in getCompanyData\n    return getCompanyData(ipos)\n  File "/Users/Brandon/Develop/ipo_web2py/applications/ipos/controllers/default.py", line 87, in getCompanyData\n    return getCompanyData(ipos)\n  File "/Users/Brandon/Develop/ipo_web2py/applications/ipos/controllers/default.py", line 87, in getCompanyData\n    return getCompanyData(ipos)\n  File "/Users/Brandon/Develop/ipo_web2py/applications/ipos/controllers/default.py", line 87, in getCompanyData\n    return getCompanyData(ipos)\n  File "/Users/Brandon/Develop/ipo_web2py/applications/ipos/controllers/default.py", line 87, in getCompanyData\n    return getCompanyData(ipos)\n  File "/Users/Brandon/Develop/ipo_web2py/applications/ipos/controllers/default.py", line 87, in getCompanyData\n    return getCompanyData(ipos)\n  File "/Users/Brandon/Develop/ipo_web2py/applications/ipos/controllers/default.py", line 87, in getCompanyData\n    return getCompanyData(ipos)\n  File "/Users/Brandon/Develop/ipo_web2py/applications/ipos/controllers/default.py", line 87, in getCompanyData\n    return getCompanyData(ipos)\n  File "/Users/Brandon/Develop/ipo_web2py/applications/ipos/controllers/default.py", line 87, in getCompanyData\n    return getCompanyData(ipos)\n  File "/Users/Brandon/Develop/ipo_web2py/applications/ipos/controllers/default.py", line 87, in getCompanyData\n    return getCompanyData(ipos)\n  File "/Users/Brandon/Develop/ipo_web2py/applications/ipos/controllers/default.py", line 87, in getCompanyData\n    return getCompanyData(ipos)\n  File "/Users/Brandon/Develop/ipo_web2py/applications/ipos/controllers/default.py", line 87, in getCompanyData\n    return getCompanyData(ipos)\n  File "/Users/Brandon/Develop/ipo_web2py/applications/ipos/controllers/default.py", line 87, in getCompanyData\n    return getCompanyData(ipos)\n  File "/Users/Brandon/Develop/ipo_web2py/applications/ipos/controllers/default.py", line 87, in getCompanyData\n    return getCompanyData(ipos)\n  File "/Users/Brandon/Develop/ipo_web2py/applications/ipos/controllers/default.py", line 87, in getCompanyData\n    return getCompanyData(ipos)\n  File "/Users/Brandon/Develop/ipo_web2py/applications/ipos/controllers/default.py", line 87, in getCompanyData\n    return getCompanyData(ipos)\n  File "/Users/Brandon/Develop/ipo_web2py/applications/ipos/controllers/default.py", line 87, in getCompanyData\n    return getCompanyData(ipos)\n  File "/Users/Brandon/Develop/ipo_web2py/applications/ipos/controllers/default.py", line 87, in getCompanyData\n    return getCompanyData(ipos)\n  File "/Users/Brandon/Develop/ipo_web2py/applications/ipos/controllers/default.py", line 87, in getCompanyData\n    return getCompanyData(ipos)\n  File "/Users/Brandon/Develop/ipo_web2py/applications/ipos/controllers/default.py", line 87, in getCompanyData\n    return getCompanyData(ipos)\n  File "/Users/Brandon/Develop/ipo_web2py/applications/ipos/controllers/default.py", line 87, in getCompanyData\n    return getCompanyData(ipos)\n  File "/Users/Brandon/Develop/ipo_web2py/applications/ipos/controllers/default.py", line 87, in getCompanyData\n    return getCompanyData(ipos)\n  File "/Users/Brandon/Develop/ipo_web2py/applications/ipos/controllers/default.py", line 87, in getCompanyData\n    return getCompanyData(ipos)\n  File "/Users/Brandon/Develop/ipo_web2py/applications/ipos/controllers/default.py", line 87, in getCompanyData\n    return getCompanyData(ipos)\n  File "/Users/Brandon/Develop/ipo_web2py/applications/ipos/controllers/default.py", line 87, in getCompanyData\n    return getCompanyData(ipos)\n  File "/Users/Brandon/Develop/ipo_web2py/applications/ipos/controllers/default.py", line 87, in getCompanyData\n    return getCompanyData(ipos)\n  File "/Users/Brandon/Develop/ipo_web2py/applications/ipos/controllers/default.py", line 87, in getCompanyData\n    return getCompanyData(ipos)\n  File "/Users/Brandon/Develop/ipo_web2py/applications/ipos/controllers/default.py", line 87, in getCompanyData\n    return getCompanyData(ipos)\n  File "/Users/Brandon/Develop/ipo_web2py/applications/ipos/controllers/default.py", line 87, in getCompanyData\n    return getCompanyData(ipos)\n  File "/Users/Brandon/Develop/ipo_web2py/applications/ipos/controllers/default.py", line 87, in getCompanyData\n    return getCompanyData(ipos)\n  File "/Users/Brandon/Develop/ipo_web2py/applications/ipos/controllers/default.py", line 87, in getCompanyData\n    return getCompanyData(ipos)\n  File "/Users/Brandon/Develop/ipo_web2py/applications/ipos/controllers/default.py", line 87, in getCompanyData\n    return getCompanyData(ipos)\n  File "/Users/Brandon/Develop/ipo_web2py/applications/ipos/controllers/default.py", line 87, in getCompanyData\n    return getCompanyData(ipos)\n  File "/Users/Brandon/Develop/ipo_web2py/applications/ipos/controllers/default.py", line 87, in getCompanyData\n    return getCompanyData(ipos)\n  File "/Users/Brandon/Develop/ipo_web2py/applications/ipos/controllers/default.py", line 87, in getCompanyData\n    return getCompanyData(ipos)\n  File "/Users/Brandon/Develop/ipo_web2py/applications/ipos/controllers/default.py", line 87, in getCompanyData\n    return getCompanyData(ipos)\n  File "/Users/Brandon/Develop/ipo_web2py/applications/ipos/controllers/default.py", line 87, in getCompanyData\n    return getCompanyData(ipos)\n  File "/Users/Brandon/Develop/ipo_web2py/applications/ipos/controllers/default.py", line 87, in getCompanyData\n    return getCompanyData(ipos)\n  File "/Users/Brandon/Develop/ipo_web2py/applications/ipos/controllers/default.py", line 87, in getCompanyData\n    return getCompanyData(ipos)\n  File "/Users/Brandon/Develop/ipo_web2py/applications/ipos/controllers/default.py", line 87, in getCompanyData\n    return getCompanyData(ipos)\n  File "/Users/Brandon/Develop/ipo_web2py/applications/ipos/controllers/default.py", line 87, in getCompanyData\n    return getCompanyData(ipos)\n  File "/Users/Brandon/Develop/ipo_web2py/applications/ipos/controllers/default.py", line 87, in getCompanyData\n    return getCompanyData(ipos)\n  File "/Users/Brandon/Develop/ipo_web2py/applications/ipos/controllers/default.py", line 87, in getCompanyData\n    return getCompanyData(ipos)\n  File "/Users/Brandon/Develop/ipo_web2py/applications/ipos/controllers/default.py", line 87, in getCompanyData\n    return getCompanyData(ipos)\n  File "/Users/Brandon/Develop/ipo_web2py/applications/ipos/controllers/default.py", line 87, in getCompanyData\n    return getCompanyData(ipos)\n  File "/Users/Brandon/Develop/ipo_web2py/applications/ipos/controllers/default.py", line 87, in getCompanyData\n    return getCompanyData(ipos)\n  File "/Users/Brandon/Develop/ipo_web2py/applications/ipos/controllers/default.py", line 87, in getCompanyData\n    return getCompanyData(ipos)\n  File "/Users/Brandon/Develop/ipo_web2py/applications/ipos/controllers/default.py", line 87, in getCompanyData\n    return getCompanyData(ipos)\n  File "/Users/Brandon/Develop/ipo_web2py/applications/ipos/controllers/default.py", line 87, in getCompanyData\n    return getCompanyData(ipos)\n  File "/Users/Brandon/Develop/ipo_web2py/applications/ipos/controllers/default.py", line 87, in getCompanyData\n    return getCompanyData(ipos)\n  File "/Users/Brandon/Develop/ipo_web2py/applications/ipos/controllers/default.py", line 87, in getCompanyData\n    return getCompanyData(ipos)\n  File "/Users/Brandon/Develop/ipo_web2py/applications/ipos/controllers/default.py", line 87, in getCompanyData\n    return getCompanyData(ipos)\n  File "/Users/Brandon/Develop/ipo_web2py/applications/ipos/controllers/default.py", line 87, in getCompanyData\n    return getCompanyData(ipos)\n  File "/Users/Brandon/Develop/ipo_web2py/applications/ipos/controllers/default.py", line 87, in getCompanyData\n    return getCompanyData(ipos)\n  File "/Users/Brandon/Develop/ipo_web2py/applications/ipos/controllers/default.py", line 87, in getCompanyData\n    return getCompanyData(ipos)\n  File "/Users/Brandon/Develop/ipo_web2py/applications/ipos/controllers/default.py", line 87, in getCompanyData\n    return getCompanyData(ipos)\n  File "/Users/Brandon/Develop/ipo_web2py/applications/ipos/controllers/default.py", line 87, in getCompanyData\n    return getCompanyData(ipos)\n  File "/Users/Brandon/Develop/ipo_web2py/applications/ipos/controllers/default.py", line 87, in getCompanyData\n    return getCompanyData(ipos)\n  File "/Users/Brandon/Develop/ipo_web2py/applications/ipos/controllers/default.py", line 87, in getCompanyData\n    return getCompanyData(ipos)\n  File "/Users/Brandon/Develop/ipo_web2py/applications/ipos/controllers/default.py", line 87, in getCompanyData\n    return getCompanyData(ipos)\n  File "/Users/Brandon/Develop/ipo_web2py/applications/ipos/controllers/default.py", line 87, in getCompanyData\n    return getCompanyData(ipos)\n  File "/Users/Brandon/Develop/ipo_web2py/applications/ipos/controllers/default.py", line 87, in getCompanyData\n    return getCompanyData(ipos)\n  File "/Users/Brandon/Develop/ipo_web2py/applications/ipos/controllers/default.py", line 87, in getCompanyData\n    return getCompanyData(ipos)\n  File "/Users/Brandon/Develop/ipo_web2py/applications/ipos/controllers/default.py", line 87, in getCompanyData\n    return getCompanyData(ipos)\n  File "/Users/Brandon/Develop/ipo_web2py/applications/ipos/controllers/default.py", line 87, in getCompanyData\n    return getCompanyData(ipos)\n  File "/Users/Brandon/Develop/ipo_web2py/applications/ipos/controllers/default.py", line 87, in getCompanyData\n    return getCompanyData(ipos)\n  File "/Users/Brandon/Develop/ipo_web2py/applications/ipos/controllers/default.py", line 87, in getCompanyData\n    return getCompanyData(ipos)\n  File "/Users/Brandon/Develop/ipo_web2py/applications/ipos/controllers/default.py", line 87, in getCompanyData\n    return getCompanyData(ipos)\n  File "/Users/Brandon/Develop/ipo_web2py/applications/ipos/controllers/default.py", line 87, in getCompanyData\n    return getCompanyData(ipos)\n  File "/Users/Brandon/Develop/ipo_web2py/applications/ipos/controllers/default.py", line 87, in getCompanyData\n    return getCompanyData(ipos)\n  File "/Users/Brandon/Develop/ipo_web2py/applications/ipos/controllers/default.py", line 87, in getCompanyData\n    return getCompanyData(ipos)\n  File "/Users/Brandon/Develop/ipo_web2py/applications/ipos/controllers/default.py", line 87, in getCompanyData\n    return getCompanyData(ipos)\n  File "/Users/Brandon/Develop/ipo_web2py/applications/ipos/controllers/default.py", line 87, in getCompanyData\n    return getCompanyData(ipos)\n  File "/Users/Brandon/Develop/ipo_web2py/applications/ipos/controllers/default.py", line 87, in getCompanyData\n    return getCompanyData(ipos)\n  File "/Users/Brandon/Develop/ipo_web2py/applications/ipos/controllers/default.py", line 87, in getCompanyData\n    return getCompanyData(ipos)\n  File "/Users/Brandon/Develop/ipo_web2py/applications/ipos/controllers/default.py", line 87, in getCompanyData\n    return getCompanyData(ipos)\n  File "/Users/Brandon/Develop/ipo_web2py/applications/ipos/controllers/default.py", line 87, in getCompanyData\n    return getCompanyData(ipos)\n  File "/Users/Brandon/Develop/ipo_web2py/applications/ipos/controllers/default.py", line 87, in getCompanyData\n    return getCompanyData(ipos)\n  File "/Users/Brandon/Develop/ipo_web2py/applications/ipos/controllers/default.py", line 87, in getCompanyData\n    return getCompanyData(ipos)\n  File "/Users/Brandon/Develop/ipo_web2py/applications/ipos/controllers/default.py", line 87, in getCompanyData\n    return getCompanyData(ipos)\n  File "/Users/Brandon/Develop/ipo_web2py/applications/ipos/controllers/default.py", line 87, in getCompanyData\n    return getCompanyData(ipos)\n  File "/Users/Brandon/Develop/ipo_web2py/applications/ipos/controllers/default.py", line 87, in getCompanyData\n    return getCompanyData(ipos)\n  File "/Users/Brandon/Develop/ipo_web2py/applications/ipos/controllers/default.py", line 87, in getCompanyData\n    return getCompanyData(ipos)\n  File "/Users/Brandon/Develop/ipo_web2py/applications/ipos/controllers/default.py", line 87, in getCompanyData\n    return getCompanyData(ipos)\n  File "/Users/Brandon/Develop/ipo_web2py/applications/ipos/controllers/default.py", line 87, in getCompanyData\n    return getCompanyData(ipos)\n  File "/Users/Brandon/Develop/ipo_web2py/applications/ipos/controllers/default.py", line 87, in getCompanyData\n    return getCompanyData(ipos)\n  File "/Users/Brandon/Develop/ipo_web2py/applications/ipos/controllers/default.py", line 87, in getCompanyData\n    return getCompanyData(ipos)\n  File "/Users/Brandon/Develop/ipo_web2py/applications/ipos/controllers/default.py", line 87, in getCompanyData\n    return getCompanyData(ipos)\n  File "/Users/Brandon/Develop/ipo_web2py/applications/ipos/controllers/default.py", line 87, in getCompanyData\n    return getCompanyData(ipos)\n  File "/Users/Brandon/Develop/ipo_web2py/applications/ipos/controllers/default.py", line 87, in getCompanyData\n    return getCompanyData(ipos)\n  File "/Users/Brandon/Develop/ipo_web2py/applications/ipos/controllers/default.py", line 87, in getCompanyData\n    return getCompanyData(ipos)\n  File "/Users/Brandon/Develop/ipo_web2py/applications/ipos/controllers/default.py", line 87, in getCompanyData\n    return getCompanyData(ipos)\n  File "/Users/Brandon/Develop/ipo_web2py/applications/ipos/controllers/default.py", line 87, in getCompanyData\n    return getCompanyData(ipos)\n  File "/Users/Brandon/Develop/ipo_web2py/applications/ipos/controllers/default.py", line 87, in getCompanyData\n    return getCompanyData(ipos)\n  File "/Users/Brandon/Develop/ipo_web2py/applications/ipos/controllers/default.py", line 87, in getCompanyData\n    return getCompanyData(ipos)\n  File "/Users/Brandon/Develop/ipo_web2py/applications/ipos/controllers/default.py", line 87, in getCompanyData\n    return getCompanyData(ipos)\n  File "/Users/Brandon/Develop/ipo_web2py/applications/ipos/controllers/default.py", line 87, in getCompanyData\n    return getCompanyData(ipos)\n  File "/Users/Brandon/Develop/ipo_web2py/applications/ipos/controllers/default.py", line 87, in getCompanyData\n    return getCompanyData(ipos)\n  File "/Users/Brandon/Develop/ipo_web2py/applications/ipos/controllers/default.py", line 87, in getCompanyData\n    return getCompanyData(ipos)\n  File "/Users/Brandon/Develop/ipo_web2py/applications/ipos/controllers/default.py", line 87, in getCompanyData\n    return getCompanyData(ipos)\n  File "/Users/Brandon/Develop/ipo_web2py/applications/ipos/controllers/default.py", line 87, in getCompanyData\n    return getCompanyData(ipos)\n  File "/Users/Brandon/Develop/ipo_web2py/applications/ipos/controllers/default.py", line 87, in getCompanyData\n    return getCompanyData(ipos)\n  File "/Users/Brandon/Develop/ipo_web2py/applications/ipos/controllers/default.py", line 87, in getCompanyData\n    return getCompanyData(ipos)\n  File "/Users/Brandon/Develop/ipo_web2py/applications/ipos/controllers/default.py", line 87, in getCompanyData\n    return getCompanyData(ipos)\n  File "/Users/Brandon/Develop/ipo_web2py/applications/ipos/controllers/default.py", line 87, in getCompanyData\n    return getCompanyData(ipos)\n  File "/Users/Brandon/Develop/ipo_web2py/applications/ipos/controllers/default.py", line 87, in getCompanyData\n    return getCompanyData(ipos)\n  File "/Users/Brandon/Develop/ipo_web2py/applications/ipos/controllers/default.py", line 87, in getCompanyData\n    return getCompanyData(ipos)\n  File "/Users/Brandon/Develop/ipo_web2py/applications/ipos/controllers/default.py", line 87, in getCompanyData\n    return getCompanyData(ipos)\n  File "/Users/Brandon/Develop/ipo_web2py/applications/ipos/controllers/default.py", line 87, in getCompanyData\n    return getCompanyData(ipos)\n  File "/Users/Brandon/Develop/ipo_web2py/applications/ipos/controllers/default.py", line 87, in getCompanyData\n    return getCompanyData(ipos)\n  File "/Users/Brandon/Develop/ipo_web2py/applications/ipos/controllers/default.py", line 87, in getCompanyData\n    return getCompanyData(ipos)\n  File "/Users/Brandon/Develop/ipo_web2py/applications/ipos/controllers/default.py", line 87, in getCompanyData\n    return getCompanyData(ipos)\n  File "/Users/Brandon/Develop/ipo_web2py/applications/ipos/controllers/default.py", line 87, in getCompanyData\n    return getCompanyData(ipos)\n  File "/Users/Brandon/Develop/ipo_web2py/applications/ipos/controllers/default.py", line 87, in getCompanyData\n    return getCompanyData(ipos)\n  File "/Users/Brandon/Develop/ipo_web2py/applications/ipos/controllers/default.py", line 87, in getCompanyData\n    return getCompanyData(ipos)\n  File "/Users/Brandon/Develop/ipo_web2py/applications/ipos/controllers/default.py", line 87, in getCompanyData\n    return getCompanyData(ipos)\n  File "/Users/Brandon/Develop/ipo_web2py/applications/ipos/controllers/default.py", line 87, in getCompanyData\n    return getCompanyData(ipos)\n  File "/Users/Brandon/Develop/ipo_web2py/applications/ipos/controllers/default.py", line 87, in getCompanyData\n    return getCompanyData(ipos)\n  File "/Users/Brandon/Develop/ipo_web2py/applications/ipos/controllers/default.py", line 87, in getCompanyData\n    return getCompanyData(ipos)\n  File "/Users/Brandon/Develop/ipo_web2py/applications/ipos/controllers/default.py", line 87, in getCompanyData\n    return getCompanyData(ipos)\n  File "/Users/Brandon/Develop/ipo_web2py/applications/ipos/controllers/default.py", line 87, in getCompanyData\n    return getCompanyData(ipos)\n  File "/Users/Brandon/Develop/ipo_web2py/applications/ipos/controllers/default.py", line 87, in getCompanyData\n    return getCompanyData(ipos)\n  File "/Users/Brandon/Develop/ipo_web2py/applications/ipos/controllers/default.py", line 87, in getCompanyData\n    return getCompanyData(ipos)\n  File "/Users/Brandon/Develop/ipo_web2py/applications/ipos/controllers/default.py", line 87, in getCompanyData\n    return getCompanyData(ipos)\n  File "/Users/Brandon/Develop/ipo_web2py/applications/ipos/controllers/default.py", line 87, in getCompanyData\n    return getCompanyData(ipos)\n  File "/Users/Brandon/Develop/ipo_web2py/applications/ipos/controllers/default.py", line 87, in getCompanyData\n    return getCompanyData(ipos)\n  File "/Users/Brandon/Develop/ipo_web2py/applications/ipos/controllers/default.py", line 87, in getCompanyData\n    return getCompanyData(ipos)\n  File "/Users/Brandon/Develop/ipo_web2py/applications/ipos/controllers/default.py", line 87, in getCompanyData\n    return getCompanyData(ipos)\n  File "/Users/Brandon/Develop/ipo_web2py/applications/ipos/controllers/default.py", line 87, in getCompanyData\n    return getCompanyData(ipos)\n  File "/Users/Brandon/Develop/ipo_web2py/applications/ipos/controllers/default.py", line 87, in getCompanyData\n    return getCompanyData(ipos)\n  File "/Users/Brandon/Develop/ipo_web2py/applications/ipos/controllers/default.py", line 87, in getCompanyData\n    return getCompanyData(ipos)\n  File "/Users/Brandon/Develop/ipo_web2py/applications/ipos/controllers/default.py", line 87, in getCompanyData\n    return getCompanyData(ipos)\n  File "/Users/Brandon/Develop/ipo_web2py/applications/ipos/controllers/default.py", line 87, in getCompanyData\n    return getCompanyData(ipos)\n  File "/Users/Brandon/Develop/ipo_web2py/applications/ipos/controllers/default.py", line 87, in getCompanyData\n    return getCompanyData(ipos)\n  File "/Users/Brandon/Develop/ipo_web2py/applications/ipos/controllers/default.py", line 87, in getCompanyData\n    return getCompanyData(ipos)\n  File "/Users/Brandon/Develop/ipo_web2py/applications/ipos/controllers/default.py", line 87, in getCompanyData\n    return getCompanyData(ipos)\n  File "/Users/Brandon/Develop/ipo_web2py/applications/ipos/controllers/default.py", line 87, in getCompanyData\n    return getCompanyData(ipos)\n  File "/Users/Brandon/Develop/ipo_web2py/applications/ipos/controllers/default.py", line 87, in getCompanyData\n    return getCompanyData(ipos)\n  File "/Users/Brandon/Develop/ipo_web2py/applications/ipos/controllers/default.py", line 87, in getCompanyData\n    return getCompanyData(ipos)\n  File "/Users/Brandon/Develop/ipo_web2py/applications/ipos/controllers/default.py", line 87, in getCompanyData\n    return getCompanyData(ipos)\n  File "/Users/Brandon/Develop/ipo_web2py/applications/ipos/controllers/default.py", line 87, in getCompanyData\n    return getCompanyData(ipos)\n  File "/Users/Brandon/Develop/ipo_web2py/applications/ipos/controllers/default.py", line 87, in getCompanyData\n    return getCompanyData(ipos)\n  File "/Users/Brandon/Develop/ipo_web2py/applications/ipos/controllers/default.py", line 87, in getCompanyData\n    return getCompanyData(ipos)\n  File "/Users/Brandon/Develop/ipo_web2py/applications/ipos/controllers/default.py", line 87, in getCompanyData\n    return getCompanyData(ipos)\n  File "/Users/Brandon/Develop/ipo_web2py/applications/ipos/controllers/default.py", line 87, in getCompanyData\n    return getCompanyData(ipos)\n  File "/Users/Brandon/Develop/ipo_web2py/applications/ipos/controllers/default.py", line 87, in getCompanyData\n    return getCompanyData(ipos)\n  File "/Users/Brandon/Develop/ipo_web2py/applications/ipos/controllers/default.py", line 87, in getCompanyData\n    return getCompanyData(ipos)\n  File "/Users/Brandon/Develop/ipo_web2py/applications/ipos/controllers/default.py", line 87, in getCompanyData\n    return getCompanyData(ipos)\n  File "/Users/Brandon/Develop/ipo_web2py/applications/ipos/controllers/default.py", line 87, in getCompanyData\n    return getCompanyData(ipos)\n  File "/Users/Brandon/Develop/ipo_web2py/applications/ipos/controllers/default.py", line 87, in getCompanyData\n    return getCompanyData(ipos)\n  File "/Users/Brandon/Develop/ipo_web2py/applications/ipos/controllers/default.py", line 87, in getCompanyData\n    return getCompanyData(ipos)\n  File "/Users/Brandon/Develop/ipo_web2py/applications/ipos/controllers/default.py", line 87, in getCompanyData\n    return getCompanyData(ipos)\n  File "/Users/Brandon/Develop/ipo_web2py/applications/ipos/controllers/default.py", line 87, in getCompanyData\n    return getCompanyData(ipos)\n  File "/Users/Brandon/Develop/ipo_web2py/applications/ipos/controllers/default.py", line 87, in getCompanyData\n    return getCompanyData(ipos)\n  File "/Users/Brandon/Develop/ipo_web2py/applications/ipos/controllers/default.py", line 87, in getCompanyData\n    return getCompanyData(ipos)\n  File "/Users/Brandon/Develop/ipo_web2py/applications/ipos/controllers/default.py", line 87, in getCompanyData\n    return getCompanyData(ipos)\n  File "/Users/Brandon/Develop/ipo_web2py/applications/ipos/controllers/default.py", line 87, in getCompanyData\n    return getCompanyData(ipos)\n  File "/Users/Brandon/Develop/ipo_web2py/applications/ipos/controllers/default.py", line 87, in getCompanyData\n    return getCompanyData(ipos)\n  File "/Users/Brandon/Develop/ipo_web2py/applications/ipos/controllers/default.py", line 87, in getCompanyData\n    return getCompanyData(ipos)\n  File "/Users/Brandon/Develop/ipo_web2py/applications/ipos/controllers/default.py", line 87, in getCompanyData\n    return getCompanyData(ipos)\n  File "/Users/Brandon/Develop/ipo_web2py/applications/ipos/controllers/default.py", line 87, in getCompanyData\n    return getCompanyData(ipos)\n  File "/Users/Brandon/Develop/ipo_web2py/applications/ipos/controllers/default.py", line 87, in getCompanyData\n    return getCompanyData(ipos)\n  File "/Users/Brandon/Develop/ipo_web2py/applications/ipos/controllers/default.py", line 87, in getCompanyData\n    return getCompanyData(ipos)\n  File "/Users/Brandon/Develop/ipo_web2py/applications/ipos/controllers/default.py", line 87, in getCompanyData\n    return getCompanyData(ipos)\n  File "/Users/Brandon/Develop/ipo_web2py/applications/ipos/controllers/default.py", line 87, in getCompanyData\n    return getCompanyData(ipos)\n  File "/Users/Brandon/Develop/ipo_web2py/applications/ipos/controllers/default.py", line 87, in getCompanyData\n    return getCompanyData(ipos)\n  File "/Users/Brandon/Develop/ipo_web2py/applications/ipos/controllers/default.py", line 87, in getCompanyData\n    return getCompanyData(ipos)\n  File "/Users/Brandon/Develop/ipo_web2py/applications/ipos/controllers/default.py", line 87, in getCompanyData\n    return getCompanyData(ipos)\n  File "/Users/Brandon/Develop/ipo_web2py/applications/ipos/controllers/default.py", line 87, in getCompanyData\n    return getCompanyData(ipos)\n  File "/Users/Brandon/Develop/ipo_web2py/applications/ipos/controllers/default.py", line 87, in getCompanyData\n    return getCompanyData(ipos)\n  File "/Users/Brandon/Develop/ipo_web2py/applications/ipos/controllers/default.py", line 87, in getCompanyData\n    return getCompanyData(ipos)\n  File "/Users/Brandon/Develop/ipo_web2py/applications/ipos/controllers/default.py", line 87, in getCompanyData\n    return getCompanyData(ipos)\n  File "/Users/Brandon/Develop/ipo_web2py/applications/ipos/controllers/default.py", line 87, in getCompanyData\n    return getCompanyData(ipos)\n  File "/Users/Brandon/Develop/ipo_web2py/applications/ipos/controllers/default.py", line 87, in getCompanyData\n    return getCompanyData(ipos)\n  File "/Users/Brandon/Develop/ipo_web2py/applications/ipos/controllers/default.py", line 87, in getCompanyData\n    return getCompanyData(ipos)\n  File "/Users/Brandon/Develop/ipo_web2py/applications/ipos/controllers/default.py", line 87, in getCompanyData\n    return getCompanyData(ipos)\n  File "/Users/Brandon/Develop/ipo_web2py/applications/ipos/controllers/default.py", line 87, in getCompanyData\n    return getCompanyData(ipos)\n  File "/Users/Brandon/Develop/ipo_web2py/applications/ipos/controllers/default.py", line 87, in getCompanyData\n    return getCompanyData(ipos)\n  File "/Users/Brandon/Develop/ipo_web2py/applications/ipos/controllers/default.py", line 87, in getCompanyData\n    return getCompanyData(ipos)\n  File "/Users/Brandon/Develop/ipo_web2py/applications/ipos/controllers/default.py", line 87, in getCompanyData\n    return getCompanyData(ipos)\n  File "/Users/Brandon/Develop/ipo_web2py/applications/ipos/controllers/default.py", line 87, in getCompanyData\n    return getCompanyData(ipos)\n  File "/Users/Brandon/Develop/ipo_web2py/applications/ipos/controllers/default.py", line 87, in getCompanyData\n    return getCompanyData(ipos)\n  File "/Users/Brandon/Develop/ipo_web2py/applications/ipos/controllers/default.py", line 87, in getCompanyData\n    return getCompanyData(ipos)\n  File "/Users/Brandon/Develop/ipo_web2py/applications/ipos/controllers/default.py", line 87, in getCompanyData\n    return getCompanyData(ipos)\n  File "/Users/Brandon/Develop/ipo_web2py/applications/ipos/controllers/default.py", line 87, in getCompanyData\n    return getCompanyData(ipos)\n  File "/Users/Brandon/Develop/ipo_web2py/applications/ipos/controllers/default.py", line 87, in getCompanyData\n    return getCompanyData(ipos)\n  File "/Users/Brandon/Develop/ipo_web2py/applications/ipos/controllers/default.py", line 87, in getCompanyData\n    return getCompanyData(ipos)\n  File "/Users/Brandon/Develop/ipo_web2py/applications/ipos/controllers/default.py", line 87, in getCompanyData\n    return getCompanyData(ipos)\n  File "/Users/Brandon/Develop/ipo_web2py/applications/ipos/controllers/default.py", line 87, in getCompanyData\n    return getCompanyData(ipos)\n  File "/Users/Brandon/Develop/ipo_web2py/applications/ipos/controllers/default.py", line 87, in getCompanyData\n    return getCompanyData(ipos)\n  File "/Users/Brandon/Develop/ipo_web2py/applications/ipos/controllers/default.py", line 87, in getCompanyData\n    return getCompanyData(ipos)\n  File "/Users/Brandon/Develop/ipo_web2py/applications/ipos/controllers/default.py", line 87, in getCompanyData\n    return getCompanyData(ipos)\n  File "/Users/Brandon/Develop/ipo_web2py/applications/ipos/controllers/default.py", line 87, in getCompanyData\n    return getCompanyData(ipos)\n  File "/Users/Brandon/Develop/ipo_web2py/applications/ipos/controllers/default.py", line 87, in getCompanyData\n    return getCompanyData(ipos)\n  File "/Users/Brandon/Develop/ipo_web2py/applications/ipos/controllers/default.py", line 87, in getCompanyData\n    return getCompanyData(ipos)\n  File "/Users/Brandon/Develop/ipo_web2py/applications/ipos/controllers/default.py", line 87, in getCompanyData\n    return getCompanyData(ipos)\n  File "/Users/Brandon/Develop/ipo_web2py/applications/ipos/controllers/default.py", line 87, in getCompanyData\n    return getCompanyData(ipos)\n  File "/Users/Brandon/Develop/ipo_web2py/applications/ipos/controllers/default.py", line 87, in getCompanyData\n    return getCompanyData(ipos)\n  File "/Users/Brandon/Develop/ipo_web2py/applications/ipos/controllers/default.py", line 87, in getCompanyData\n    return getCompanyData(ipos)\n  File "/Users/Brandon/Develop/ipo_web2py/applications/ipos/controllers/default.py", line 87, in getCompanyData\n    return getCompanyData(ipos)\n  File "/Users/Brandon/Develop/ipo_web2py/applications/ipos/controllers/default.py", line 87, in getCompanyData\n    return getCompanyData(ipos)\n  File "/Users/Brandon/Develop/ipo_web2py/applications/ipos/controllers/default.py", line 87, in getCompanyData\n    return getCompanyData(ipos)\n  File "/Users/Brandon/Develop/ipo_web2py/applications/ipos/controllers/default.py", line 87, in getCompanyData\n    return getCompanyData(ipos)\n  File "/Users/Brandon/Develop/ipo_web2py/applications/ipos/controllers/default.py", line 87, in getCompanyData\n    return getCompanyData(ipos)\n  File "/Users/Brandon/Develop/ipo_web2py/applications/ipos/controllers/default.py", line 87, in getCompanyData\n    return getCompanyData(ipos)\n  File "/Users/Brandon/Develop/ipo_web2py/applications/ipos/controllers/default.py", line 87, in getCompanyData\n    return getCompanyData(ipos)\n  File "/Users/Brandon/Develop/ipo_web2py/applications/ipos/controllers/default.py", line 87, in getCompanyData\n    return getCompanyData(ipos)\n  File "/Users/Brandon/Develop/ipo_web2py/applications/ipos/controllers/default.py", line 87, in getCompanyData\n    return getCompanyData(ipos)\n  File "/Users/Brandon/Develop/ipo_web2py/applications/ipos/controllers/default.py", line 87, in getCompanyData\n    return getCompanyData(ipos)\n  File "/Users/Brandon/Develop/ipo_web2py/applications/ipos/controllers/default.py", line 87, in getCompanyData\n    return getCompanyData(ipos)\n  File "/Users/Brandon/Develop/ipo_web2py/applications/ipos/controllers/default.py", line 87, in getCompanyData\n    return getCompanyData(ipos)\n  File "/Users/Brandon/Develop/ipo_web2py/applications/ipos/controllers/default.py", line 87, in getCompanyData\n    return getCompanyData(ipos)\n  File "/Users/Brandon/Develop/ipo_web2py/applications/ipos/controllers/default.py", line 87, in getCompanyData\n    return getCompanyData(ipos)\n  File "/Users/Brandon/Develop/ipo_web2py/applications/ipos/controllers/default.py", line 87, in getCompanyData\n    return getCompanyData(ipos)\n  File "/Users/Brandon/Develop/ipo_web2py/applications/ipos/controllers/default.py", line 87, in getCompanyData\n    return getCompanyData(ipos)\n  File "/Users/Brandon/Develop/ipo_web2py/applications/ipos/controllers/default.py", line 87, in getCompanyData\n    return getCompanyData(ipos)\n  File "/Users/Brandon/Develop/ipo_web2py/applications/ipos/controllers/default.py", line 87, in getCompanyData\n    return getCompanyData(ipos)\n  File "/Users/Brandon/Develop/ipo_web2py/applications/ipos/controllers/default.py", line 87, in getCompanyData\n    return getCompanyData(ipos)\n  File "/Users/Brandon/Develop/ipo_web2py/applications/ipos/controllers/default.py", line 87, in getCompanyData\n    return getCompanyData(ipos)\n  File "/Users/Brandon/Develop/ipo_web2py/applications/ipos/controllers/default.py", line 87, in getCompanyData\n    return getCompanyData(ipos)\n  File "/Users/Brandon/Develop/ipo_web2py/applications/ipos/controllers/default.py", line 87, in getCompanyData\n    return getCompanyData(ipos)\n  File "/Users/Brandon/Develop/ipo_web2py/applications/ipos/controllers/default.py", line 87, in getCompanyData\n    return getCompanyData(ipos)\n  File "/Users/Brandon/Develop/ipo_web2py/applications/ipos/controllers/default.py", line 87, in getCompanyData\n    return getCompanyData(ipos)\n  File "/Users/Brandon/Develop/ipo_web2py/applications/ipos/controllers/default.py", line 87, in getCompanyData\n    return getCompanyData(ipos)\n  File "/Users/Brandon/Develop/ipo_web2py/applications/ipos/controllers/default.py", line 87, in getCompanyData\n    return getCompanyData(ipos)\n  File "/Users/Brandon/Develop/ipo_web2py/applications/ipos/controllers/default.py", line 87, in getCompanyData\n    return getCompanyData(ipos)\n  File "/Users/Brandon/Develop/ipo_web2py/applications/ipos/controllers/default.py", line 87, in getCompanyData\n    return getCompanyData(ipos)\n  File "/Users/Brandon/Develop/ipo_web2py/applications/ipos/controllers/default.py", line 87, in getCompanyData\n    return getCompanyData(ipos)\n  File "/Users/Brandon/Develop/ipo_web2py/applications/ipos/controllers/default.py", line 87, in getCompanyData\n    return getCompanyData(ipos)\n  File "/Users/Brandon/Develop/ipo_web2py/applications/ipos/controllers/default.py", line 87, in getCompanyData\n    return getCompanyData(ipos)\n  File "/Users/Brandon/Develop/ipo_web2py/applications/ipos/controllers/default.py", line 87, in getCompanyData\n    return getCompanyData(ipos)\n  File "/Users/Brandon/Develop/ipo_web2py/applications/ipos/controllers/default.py", line 87, in getCompanyData\n    return getCompanyData(ipos)\n  File "/Users/Brandon/Develop/ipo_web2py/applications/ipos/controllers/default.py", line 87, in getCompanyData\n    return getCompanyData(ipos)\n  File "/Users/Brandon/Develop/ipo_web2py/applications/ipos/controllers/default.py", line 87, in getCompanyData\n    return getCompanyData(ipos)\n  File "/Users/Brandon/Develop/ipo_web2py/applications/ipos/controllers/default.py", line 87, in getCompanyData\n    return getCompanyData(ipos)\n  File "/Users/Brandon/Develop/ipo_web2py/applications/ipos/controllers/default.py", line 87, in getCompanyData\n    return getCompanyData(ipos)\n  File "/Users/Brandon/Develop/ipo_web2py/applications/ipos/controllers/default.py", line 87, in getCompanyData\n    return getCompanyData(ipos)\n  File "/Users/Brandon/Develop/ipo_web2py/applications/ipos/controllers/default.py", line 87, in getCompanyData\n    return getCompanyData(ipos)\n  File "/Users/Brandon/Develop/ipo_web2py/applications/ipos/controllers/default.py", line 87, in getCompanyData\n    return getCompanyData(ipos)\n  File "/Users/Brandon/Develop/ipo_web2py/applications/ipos/controllers/default.py", line 87, in getCompanyData\n    return getCompanyData(ipos)\n  File "/Users/Brandon/Develop/ipo_web2py/applications/ipos/controllers/default.py", line 87, in getCompanyData\n    return getCompanyData(ipos)\n  File "/Users/Brandon/Develop/ipo_web2py/applications/ipos/controllers/default.py", line 87, in getCompanyData\n    return getCompanyData(ipos)\n  File "/Users/Brandon/Develop/ipo_web2py/applications/ipos/controllers/default.py", line 87, in getCompanyData\n    return getCompanyData(ipos)\n  File "/Users/Brandon/Develop/ipo_web2py/applications/ipos/controllers/default.py", line 87, in getCompanyData\n    return getCompanyData(ipos)\n  File "/Users/Brandon/Develop/ipo_web2py/applications/ipos/controllers/default.py", line 87, in getCompanyData\n    return getCompanyData(ipos)\n  File "/Users/Brandon/Develop/ipo_web2py/applications/ipos/controllers/default.py", line 87, in getCompanyData\n    return getCompanyData(ipos)\n  File "/Users/Brandon/Develop/ipo_web2py/applications/ipos/controllers/default.py", line 87, in getCompanyData\n    return getCompanyData(ipos)\n  File "/Users/Brandon/Develop/ipo_web2py/applications/ipos/controllers/default.py", line 87, in getCompanyData\n    return getCompanyData(ipos)\n  File "/Users/Brandon/Develop/ipo_web2py/applications/ipos/controllers/default.py", line 87, in getCompanyData\n    return getCompanyData(ipos)\n  File "/Users/Brandon/Develop/ipo_web2py/applications/ipos/controllers/default.py", line 87, in getCompanyData\n    return getCompanyData(ipos)\n  File "/Users/Brandon/Develop/ipo_web2py/applications/ipos/controllers/default.py", line 87, in getCompanyData\n    return getCompanyData(ipos)\n  File "/Users/Brandon/Develop/ipo_web2py/applications/ipos/controllers/default.py", line 87, in getCompanyData\n    return getCompanyData(ipos)\n  File "/Users/Brandon/Develop/ipo_web2py/applications/ipos/controllers/default.py", line 87, in getCompanyData\n    return getCompanyData(ipos)\n  File "/Users/Brandon/Develop/ipo_web2py/applications/ipos/controllers/default.py", line 87, in getCompanyData\n    return getCompanyData(ipos)\n  File "/Users/Brandon/Develop/ipo_web2py/applications/ipos/controllers/default.py", line 87, in getCompanyData\n    return getCompanyData(ipos)\n  File "/Users/Brandon/Develop/ipo_web2py/applications/ipos/controllers/default.py", line 87, in getCompanyData\n    return getCompanyData(ipos)\n  File "/Users/Brandon/Develop/ipo_web2py/applications/ipos/controllers/default.py", line 87, in getCompanyData\n    return getCompanyData(ipos)\n  File "/Users/Brandon/Develop/ipo_web2py/applications/ipos/controllers/default.py", line 87, in getCompanyData\n    return getCompanyData(ipos)\n  File "/Users/Brandon/Develop/ipo_web2py/applications/ipos/controllers/default.py", line 87, in getCompanyData\n    return getCompanyData(ipos)\n  File "/Users/Brandon/Develop/ipo_web2py/applications/ipos/controllers/default.py", line 87, in getCompanyData\n    return getCompanyData(ipos)\n  File "/Users/Brandon/Develop/ipo_web2py/applications/ipos/controllers/default.py", line 87, in getCompanyData\n    return getCompanyData(ipos)\n  File "/Users/Brandon/Develop/ipo_web2py/applications/ipos/controllers/default.py", line 87, in getCompanyData\n    return getCompanyData(ipos)\n  File "/Users/Brandon/Develop/ipo_web2py/applications/ipos/controllers/default.py", line 87, in getCompanyData\n    return getCompanyData(ipos)\n  File "/Users/Brandon/Develop/ipo_web2py/applications/ipos/controllers/default.py", line 87, in getCompanyData\n    return getCompanyData(ipos)\n  File "/Users/Brandon/Develop/ipo_web2py/applications/ipos/controllers/default.py", line 87, in getCompanyData\n    return getCompanyData(ipos)\n  File "/Users/Brandon/Develop/ipo_web2py/applications/ipos/controllers/default.py", line 87, in getCompanyData\n    return getCompanyData(ipos)\n  File "/Users/Brandon/Develop/ipo_web2py/applications/ipos/controllers/default.py", line 87, in getCompanyData\n    return getCompanyData(ipos)\n  File "/Users/Brandon/Develop/ipo_web2py/applications/ipos/controllers/default.py", line 87, in getCompanyData\n    return getCompanyData(ipos)\n  File "/Users/Brandon/Develop/ipo_web2py/applications/ipos/controllers/default.py", line 87, in getCompanyData\n    return getCompanyData(ipos)\n  File "/Users/Brandon/Develop/ipo_web2py/applications/ipos/controllers/default.py", line 87, in getCompanyData\n    return getCompanyData(ipos)\n  File "/Users/Brandon/Develop/ipo_web2py/applications/ipos/controllers/default.py", line 87, in getCompanyData\n    return getCompanyData(ipos)\n  File "/Users/Brandon/Develop/ipo_web2py/applications/ipos/controllers/default.py", line 87, in getCompanyData\n    return getCompanyData(ipos)\n  File "/Users/Brandon/Develop/ipo_web2py/applications/ipos/controllers/default.py", line 87, in getCompanyData\n    return getCompanyData(ipos)\n  File "/Users/Brandon/Develop/ipo_web2py/applications/ipos/controllers/default.py", line 87, in getCompanyData\n    return getCompanyData(ipos)\n  File "/Users/Brandon/Develop/ipo_web2py/applications/ipos/controllers/default.py", line 87, in getCompanyData\n    return getCompanyData(ipos)\n  File "/Users/Brandon/Develop/ipo_web2py/applications/ipos/controllers/default.py", line 87, in getCompanyData\n    return getCompanyData(ipos)\n  File "/Users/Brandon/Develop/ipo_web2py/applications/ipos/controllers/default.py", line 87, in getCompanyData\n    return getCompanyData(ipos)\n  File "/Users/Brandon/Develop/ipo_web2py/applications/ipos/controllers/default.py", line 87, in getCompanyData\n    return getCompanyData(ipos)\n  File "/Users/Brandon/Develop/ipo_web2py/applications/ipos/controllers/default.py", line 87, in getCompanyData\n    return getCompanyData(ipos)\n  File "/Users/Brandon/Develop/ipo_web2py/applications/ipos/controllers/default.py", line 87, in getCompanyData\n    return getCompanyData(ipos)\n  File "/Users/Brandon/Develop/ipo_web2py/applications/ipos/controllers/default.py", line 87, in getCompanyData\n    return getCompanyData(ipos)\n  File "/Users/Brandon/Develop/ipo_web2py/applications/ipos/controllers/default.py", line 87, in getCompanyData\n    return getCompanyData(ipos)\n  File "/Users/Brandon/Develop/ipo_web2py/applications/ipos/controllers/default.py", line 87, in getCompanyData\n    return getCompanyData(ipos)\n  File "/Users/Brandon/Develop/ipo_web2py/applications/ipos/controllers/default.py", line 87, in getCompanyData\n    return getCompanyData(ipos)\n  File "/Users/Brandon/Develop/ipo_web2py/applications/ipos/controllers/default.py", line 87, in getCompanyData\n    return getCompanyData(ipos)\n  File "/Users/Brandon/Develop/ipo_web2py/applications/ipos/controllers/default.py", line 87, in getCompanyData\n    return getCompanyData(ipos)\n  File "/Users/Brandon/Develop/ipo_web2py/applications/ipos/controllers/default.py", line 87, in getCompanyData\n    return getCompanyData(ipos)\n  File "/Users/Brandon/Develop/ipo_web2py/applications/ipos/controllers/default.py", line 87, in getCompanyData\n    return getCompanyData(ipos)\n  File "/Users/Brandon/Develop/ipo_web2py/applications/ipos/controllers/default.py", line 87, in getCompanyData\n    return getCompanyData(ipos)\n  File "/Users/Brandon/Develop/ipo_web2py/applications/ipos/controllers/default.py", line 87, in getCompanyData\n    return getCompanyData(ipos)\n  File "/Users/Brandon/Develop/ipo_web2py/applications/ipos/controllers/default.py", line 87, in getCompanyData\n    return getCompanyData(ipos)\n  File "/Users/Brandon/Develop/ipo_web2py/applications/ipos/controllers/default.py", line 87, in getCompanyData\n    return getCompanyData(ipos)\n  File "/Users/Brandon/Develop/ipo_web2py/applications/ipos/controllers/default.py", line 87, in getCompanyData\n    return getCompanyData(ipos)\n  File "/Users/Brandon/Develop/ipo_web2py/applications/ipos/controllers/default.py", line 87, in getCompanyData\n    return getCompanyData(ipos)\n  File "/Users/Brandon/Develop/ipo_web2py/applications/ipos/controllers/default.py", line 87, in getCompanyData\n    return getCompanyData(ipos)\n  File "/Users/Brandon/Develop/ipo_web2py/applications/ipos/controllers/default.py", line 87, in getCompanyData\n    return getCompanyData(ipos)\n  File "/Users/Brandon/Develop/ipo_web2py/applications/ipos/controllers/default.py", line 87, in getCompanyData\n    return getCompanyData(ipos)\n  File "/Users/Brandon/Develop/ipo_web2py/applications/ipos/controllers/default.py", line 87, in getCompanyData\n    return getCompanyData(ipos)\n  File "/Users/Brandon/Develop/ipo_web2py/applications/ipos/controllers/default.py", line 87, in getCompanyData\n    return getCompanyData(ipos)\n  File "/Users/Brandon/Develop/ipo_web2py/applications/ipos/controllers/default.py", line 87, in getCompanyData\n    return getCompanyData(ipos)\n  File "/Users/Brandon/Develop/ipo_web2py/applications/ipos/controllers/default.py", line 87, in getCompanyData\n    return getCompanyData(ipos)\n  File "/Users/Brandon/Develop/ipo_web2py/applications/ipos/controllers/default.py", line 87, in getCompanyData\n    return getCompanyData(ipos)\n  File "/Users/Brandon/Develop/ipo_web2py/applications/ipos/controllers/default.py", line 87, in getCompanyData\n    return getCompanyData(ipos)\n  File "/Users/Brandon/Develop/ipo_web2py/applications/ipos/controllers/default.py", line 87, in getCompanyData\n    return getCompanyData(ipos)\n  File "/Users/Brandon/Develop/ipo_web2py/applications/ipos/controllers/default.py", line 87, in getCompanyData\n    return getCompanyData(ipos)\n  File "/Users/Brandon/Develop/ipo_web2py/applications/ipos/controllers/default.py", line 87, in getCompanyData\n    return getCompanyData(ipos)\n  File "/Users/Brandon/Develop/ipo_web2py/applications/ipos/controllers/default.py", line 87, in getCompanyData\n    return getCompanyData(ipos)\n  File "/Users/Brandon/Develop/ipo_web2py/applications/ipos/controllers/default.py", line 87, in getCompanyData\n    return getCompanyData(ipos)\n  File "/Users/Brandon/Develop/ipo_web2py/applications/ipos/controllers/default.py", line 87, in getCompanyData\n    return getCompanyData(ipos)\n  File "/Users/Brandon/Develop/ipo_web2py/applications/ipos/controllers/default.py", line 87, in getCompanyData\n    return getCompanyData(ipos)\n  File "/Users/Brandon/Develop/ipo_web2py/applications/ipos/controllers/default.py", line 87, in getCompanyData\n    return getCompanyData(ipos)\n  File "/Users/Brandon/Develop/ipo_web2py/applications/ipos/controllers/default.py", line 87, in getCompanyData\n    return getCompanyData(ipos)\n  File "/Users/Brandon/Develop/ipo_web2py/applications/ipos/controllers/default.py", line 87, in getCompanyData\n    return getCompanyData(ipos)\n  File "/Users/Brandon/Develop/ipo_web2py/applications/ipos/controllers/default.py", line 87, in getCompanyData\n    return getCompanyData(ipos)\n  File "/Users/Brandon/Develop/ipo_web2py/applications/ipos/controllers/default.py", line 87, in getCompanyData\n    return getCompanyData(ipos)\n  File "/Users/Brandon/Develop/ipo_web2py/applications/ipos/controllers/default.py", line 87, in getCompanyData\n    return getCompanyData(ipos)\n  File "/Users/Brandon/Develop/ipo_web2py/applications/ipos/controllers/default.py", line 87, in getCompanyData\n    return getCompanyData(ipos)\n  File "/Users/Brandon/Develop/ipo_web2py/applications/ipos/controllers/default.py", line 87, in getCompanyData\n    return getCompanyData(ipos)\n  File "/Users/Brandon/Develop/ipo_web2py/applications/ipos/controllers/default.py", line 87, in getCompanyData\n    return getCompanyData(ipos)\n  File "/Users/Brandon/Develop/ipo_web2py/applications/ipos/controllers/default.py", line 87, in getCompanyData\n    return getCompanyData(ipos)\n  File "/Users/Brandon/Develop/ipo_web2py/applications/ipos/controllers/default.py", line 87, in getCompanyData\n    return getCompanyData(ipos)\n  File "/Users/Brandon/Develop/ipo_web2py/applications/ipos/controllers/default.py", line 87, in getCompanyData\n    return getCompanyData(ipos)\n  File "/Users/Brandon/Develop/ipo_web2py/applications/ipos/controllers/default.py", line 87, in getCompanyData\n    return getCompanyData(ipos)\n  File "/Users/Brandon/Develop/ipo_web2py/applications/ipos/controllers/default.py", line 87, in getCompanyData\n    return getCompanyData(ipos)\n  File "/Users/Brandon/Develop/ipo_web2py/applications/ipos/controllers/default.py", line 87, in getCompanyData\n    return getCompanyData(ipos)\n  File "/Users/Brandon/Develop/ipo_web2py/applications/ipos/controllers/default.py", line 87, in getCompanyData\n    return getCompanyData(ipos)\n  File "/Users/Brandon/Develop/ipo_web2py/applications/ipos/controllers/default.py", line 87, in getCompanyData\n    return getCompanyData(ipos)\n  File "/Users/Brandon/Develop/ipo_web2py/applications/ipos/controllers/default.py", line 87, in getCompanyData\n    return getCompanyData(ipos)\n  File "/Users/Brandon/Develop/ipo_web2py/applications/ipos/controllers/default.py", line 87, in getCompanyData\n    return getCompanyData(ipos)\n  File "/Users/Brandon/Develop/ipo_web2py/applications/ipos/controllers/default.py", line 87, in getCompanyData\n    return getCompanyData(ipos)\n  File "/Users/Brandon/Develop/ipo_web2py/applications/ipos/controllers/default.py", line 87, in getCompanyData\n    return getCompanyData(ipos)\n  File "/Users/Brandon/Develop/ipo_web2py/applications/ipos/controllers/default.py", line 87, in getCompanyData\n    return getCompanyData(ipos)\n  File "/Users/Brandon/Develop/ipo_web2py/applications/ipos/controllers/default.py", line 87, in getCompanyData\n    return getCompanyData(ipos)\n  File "/Users/Brandon/Develop/ipo_web2py/applications/ipos/controllers/default.py", line 87, in getCompanyData\n    return getCompanyData(ipos)\n  File "/Users/Brandon/Develop/ipo_web2py/applications/ipos/controllers/default.py", line 87, in getCompanyData\n    return getCompanyData(ipos)\n  File "/Users/Brandon/Develop/ipo_web2py/applications/ipos/controllers/default.py", line 87, in getCompanyData\n    return getCompanyData(ipos)\n  File "/Users/Brandon/Develop/ipo_web2py/applications/ipos/controllers/default.py", line 87, in getCompanyData\n    return getCompanyData(ipos)\n  File "/Users/Brandon/Develop/ipo_web2py/applications/ipos/controllers/default.py", line 87, in getCompanyData\n    return getCompanyData(ipos)\n  File "/Users/Brandon/Develop/ipo_web2py/applications/ipos/controllers/default.py", line 87, in getCompanyData\n    return getCompanyData(ipos)\n  File "/Users/Brandon/Develop/ipo_web2py/applications/ipos/controllers/default.py", line 87, in getCompanyData\n    return getCompanyData(ipos)\n  File "/Users/Brandon/Develop/ipo_web2py/applications/ipos/controllers/default.py", line 87, in getCompanyData\n    return getCompanyData(ipos)\n  File "/Users/Brandon/Develop/ipo_web2py/applications/ipos/controllers/default.py", line 87, in getCompanyData\n    return getCompanyData(ipos)\n  File "/Users/Brandon/Develop/ipo_web2py/applications/ipos/controllers/default.py", line 87, in getCompanyData\n    return getCompanyData(ipos)\n  File "/Users/Brandon/Develop/ipo_web2py/applications/ipos/controllers/default.py", line 87, in getCompanyData\n    return getCompanyData(ipos)\n  File "/Users/Brandon/Develop/ipo_web2py/applications/ipos/controllers/default.py", line 87, in getCompanyData\n    return getCompanyData(ipos)\n  File "/Users/Brandon/Develop/ipo_web2py/applications/ipos/controllers/default.py", line 87, in getCompanyData\n    return getCompanyData(ipos)\n  File "/Users/Brandon/Develop/ipo_web2py/applications/ipos/controllers/default.py", line 87, in getCompanyData\n    return getCompanyData(ipos)\n  File "/Users/Brandon/Develop/ipo_web2py/applications/ipos/controllers/default.py", line 87, in getCompanyData\n    return getCompanyData(ipos)\n  File "/Users/Brandon/Develop/ipo_web2py/applications/ipos/controllers/default.py", line 87, in getCompanyData\n    return getCompanyData(ipos)\n  File "/Users/Brandon/Develop/ipo_web2py/applications/ipos/controllers/default.py", line 87, in getCompanyData\n    return getCompanyData(ipos)\n  File "/Users/Brandon/Develop/ipo_web2py/applications/ipos/controllers/default.py", line 87, in getCompanyData\n    return getCompanyData(ipos)\n  File "/Users/Brandon/Develop/ipo_web2py/applications/ipos/controllers/default.py", line 87, in getCompanyData\n    return getCompanyData(ipos)\n  File "/Users/Brandon/Develop/ipo_web2py/applications/ipos/controllers/default.py", line 87, in getCompanyData\n    return getCompanyData(ipos)\n  File "/Users/Brandon/Develop/ipo_web2py/applications/ipos/controllers/default.py", line 87, in getCompanyData\n    return getCompanyData(ipos)\n  File "/Users/Brandon/Develop/ipo_web2py/applications/ipos/controllers/default.py", line 87, in getCompanyData\n    return getCompanyData(ipos)\n  File "/Users/Brandon/Develop/ipo_web2py/applications/ipos/controllers/default.py", line 87, in getCompanyData\n    return getCompanyData(ipos)\n  File "/Users/Brandon/Develop/ipo_web2py/applications/ipos/controllers/default.py", line 87, in getCompanyData\n    return getCompanyData(ipos)\n  File "/Users/Brandon/Develop/ipo_web2py/applications/ipos/controllers/default.py", line 87, in getCompanyData\n    return getCompanyData(ipos)\n  File "/Users/Brandon/Develop/ipo_web2py/applications/ipos/controllers/default.py", line 87, in getCompanyData\n    return getCompanyData(ipos)\n  File "/Users/Brandon/Develop/ipo_web2py/applications/ipos/controllers/default.py", line 87, in getCompanyData\n    return getCompanyData(ipos)\n  File "/Users/Brandon/Develop/ipo_web2py/applications/ipos/controllers/default.py", line 87, in getCompanyData\n    return getCompanyData(ipos)\n  File "/Users/Brandon/Develop/ipo_web2py/applications/ipos/controllers/default.py", line 87, in getCompanyData\n    return getCompanyData(ipos)\n  File "/Users/Brandon/Develop/ipo_web2py/applications/ipos/controllers/default.py", line 87, in getCompanyData\n    return getCompanyData(ipos)\n  File "/Users/Brandon/Develop/ipo_web2py/applications/ipos/controllers/default.py", line 87, in getCompanyData\n    return getCompanyData(ipos)\n  File "/Users/Brandon/Develop/ipo_web2py/applications/ipos/controllers/default.py", line 87, in getCompanyData\n    return getCompanyData(ipos)\n  File "/Users/Brandon/Develop/ipo_web2py/applications/ipos/controllers/default.py", line 87, in getCompanyData\n    return getCompanyData(ipos)\n  File "/Users/Brandon/Develop/ipo_web2py/applications/ipos/controllers/default.py", line 87, in getCompanyData\n    return getCompanyData(ipos)\n  File "/Users/Brandon/Develop/ipo_web2py/applications/ipos/controllers/default.py", line 87, in getCompanyData\n    return getCompanyData(ipos)\n  File "/Users/Brandon/Develop/ipo_web2py/applications/ipos/controllers/default.py", line 87, in getCompanyData\n    return getCompanyData(ipos)\n  File "/Users/Brandon/Develop/ipo_web2py/applications/ipos/controllers/default.py", line 87, in getCompanyData\n    return getCompanyData(ipos)\n  File "/Users/Brandon/Develop/ipo_web2py/applications/ipos/controllers/default.py", line 87, in getCompanyData\n    return getCompanyData(ipos)\n  File "/Users/Brandon/Develop/ipo_web2py/applications/ipos/controllers/default.py", line 87, in getCompanyData\n    return getCompanyData(ipos)\n  File "/Users/Brandon/Develop/ipo_web2py/applications/ipos/controllers/default.py", line 87, in getCompanyData\n    return getCompanyData(ipos)\n  File "/Users/Brandon/Develop/ipo_web2py/applications/ipos/controllers/default.py", line 87, in getCompanyData\n    return getCompanyData(ipos)\n  File "/Users/Brandon/Develop/ipo_web2py/applications/ipos/controllers/default.py", line 87, in getCompanyData\n    return getCompanyData(ipos)\n  File "/Users/Brandon/Develop/ipo_web2py/applications/ipos/controllers/default.py", line 87, in getCompanyData\n    return getCompanyData(ipos)\n  File "/Users/Brandon/Develop/ipo_web2py/applications/ipos/controllers/default.py", line 87, in getCompanyData\n    return getCompanyData(ipos)\n  File "/Users/Brandon/Develop/ipo_web2py/applications/ipos/controllers/default.py", line 87, in getCompanyData\n    return getCompanyData(ipos)\n  File "/Users/Brandon/Develop/ipo_web2py/applications/ipos/controllers/default.py", line 87, in getCompanyData\n    return getCompanyData(ipos)\n  File "/Users/Brandon/Develop/ipo_web2py/applications/ipos/controllers/default.py", line 87, in getCompanyData\n    return getCompanyData(ipos)\n  File "/Users/Brandon/Develop/ipo_web2py/applications/ipos/controllers/default.py", line 87, in getCompanyData\n    return getCompanyData(ipos)\n  File "/Users/Brandon/Develop/ipo_web2py/applications/ipos/controllers/default.py", line 87, in getCompanyData\n    return getCompanyData(ipos)\n  File "/Users/Brandon/Develop/ipo_web2py/applications/ipos/controllers/default.py", line 87, in getCompanyData\n    return getCompanyData(ipos)\n  File "/Users/Brandon/Develop/ipo_web2py/applications/ipos/controllers/default.py", line 87, in getCompanyData\n    return getCompanyData(ipos)\n  File "/Users/Brandon/Develop/ipo_web2py/applications/ipos/controllers/default.py", line 87, in getCompanyData\n    return getCompanyData(ipos)\n  File "/Users/Brandon/Develop/ipo_web2py/applications/ipos/controllers/default.py", line 87, in getCompanyData\n    return getCompanyData(ipos)\n  File "/Users/Brandon/Develop/ipo_web2py/applications/ipos/controllers/default.py", line 87, in getCompanyData\n    return getCompanyData(ipos)\n  File "/Users/Brandon/Develop/ipo_web2py/applications/ipos/controllers/default.py", line 87, in getCompanyData\n    return getCompanyData(ipos)\n  File "/Users/Brandon/Develop/ipo_web2py/applications/ipos/controllers/default.py", line 87, in getCompanyData\n    return getCompanyData(ipos)\n  File "/Users/Brandon/Develop/ipo_web2py/applications/ipos/controllers/default.py", line 87, in getCompanyData\n    return getCompanyData(ipos)\n  File "/Users/Brandon/Develop/ipo_web2py/applications/ipos/controllers/default.py", line 87, in getCompanyData\n    return getCompanyData(ipos)\n  File "/Users/Brandon/Develop/ipo_web2py/applications/ipos/controllers/default.py", line 87, in getCompanyData\n    return getCompanyData(ipos)\n  File "/Users/Brandon/Develop/ipo_web2py/applications/ipos/controllers/default.py", line 87, in getCompanyData\n    return getCompanyData(ipos)\n  File "/Users/Brandon/Develop/ipo_web2py/applications/ipos/controllers/default.py", line 87, in getCompanyData\n    return getCompanyData(ipos)\n  File "/Users/Brandon/Develop/ipo_web2py/applications/ipos/controllers/default.py", line 87, in getCompanyData\n    return getCompanyData(ipos)\n  File "/Users/Brandon/Develop/ipo_web2py/applications/ipos/controllers/default.py", line 87, in getCompanyData\n    return getCompanyData(ipos)\n  File "/Users/Brandon/Develop/ipo_web2py/applications/ipos/controllers/default.py", line 87, in getCompanyData\n    return getCompanyData(ipos)\n  File "/Users/Brandon/Develop/ipo_web2py/applications/ipos/controllers/default.py", line 87, in getCompanyData\n    return getCompanyData(ipos)\n  File "/Users/Brandon/Develop/ipo_web2py/applications/ipos/controllers/default.py", line 87, in getCompanyData\n    return getCompanyData(ipos)\n  File "/Users/Brandon/Develop/ipo_web2py/applications/ipos/controllers/default.py", line 87, in getCompanyData\n    return getCompanyData(ipos)\n  File "/Users/Brandon/Develop/ipo_web2py/applications/ipos/controllers/default.py", line 87, in getCompanyData\n    return getCompanyData(ipos)\n  File "/Users/Brandon/Develop/ipo_web2py/applications/ipos/controllers/default.py", line 87, in getCompanyData\n    return getCompanyData(ipos)\n  File "/Users/Brandon/Develop/ipo_web2py/applications/ipos/controllers/default.py", line 87, in getCompanyData\n    return getCompanyData(ipos)\n  File "/Users/Brandon/Develop/ipo_web2py/applications/ipos/controllers/default.py", line 87, in getCompanyData\n    return getCompanyData(ipos)\n  File "/Users/Brandon/Develop/ipo_web2py/applications/ipos/controllers/default.py", line 87, in getCompanyData\n    return getCompanyData(ipos)\n  File "/Users/Brandon/Develop/ipo_web2py/applications/ipos/controllers/default.py", line 87, in getCompanyData\n    return getCompanyData(ipos)\n  File "/Users/Brandon/Develop/ipo_web2py/applications/ipos/controllers/default.py", line 87, in getCompanyData\n    return getCompanyData(ipos)\n  File "/Users/Brandon/Develop/ipo_web2py/applications/ipos/controllers/default.py", line 87, in getCompanyData\n    return getCompanyData(ipos)\n  File "/Users/Brandon/Develop/ipo_web2py/applications/ipos/controllers/default.py", line 87, in getCompanyData\n    return getCompanyData(ipos)\n  File "/Users/Brandon/Develop/ipo_web2py/applications/ipos/controllers/default.py", line 87, in getCompanyData\n    return getCompanyData(ipos)\n  File "/Users/Brandon/Develop/ipo_web2py/applications/ipos/controllers/default.py", line 87, in getCompanyData\n    return getCompanyData(ipos)\n  File "/Users/Brandon/Develop/ipo_web2py/applications/ipos/controllers/default.py", line 87, in getCompanyData\n    return getCompanyData(ipos)\n  File "/Users/Brandon/Develop/ipo_web2py/applications/ipos/controllers/default.py", line 87, in getCompanyData\n    return getCompanyData(ipos)\n  File "/Users/Brandon/Develop/ipo_web2py/applications/ipos/controllers/default.py", line 87, in getCompanyData\n    return getCompanyData(ipos)\n  File "/Users/Brandon/Develop/ipo_web2py/applications/ipos/controllers/default.py", line 87, in getCompanyData\n    return getCompanyData(ipos)\n  File "/Users/Brandon/Develop/ipo_web2py/applications/ipos/controllers/default.py", line 87, in getCompanyData\n    return getCompanyData(ipos)\n  File "/Users/Brandon/Develop/ipo_web2py/applications/ipos/controllers/default.py", line 87, in getCompanyData\n    return getCompanyData(ipos)\n  File "/Users/Brandon/Develop/ipo_web2py/applications/ipos/controllers/default.py", line 87, in getCompanyData\n    return getCompanyData(ipos)\n  File "/Users/Brandon/Develop/ipo_web2py/applications/ipos/controllers/default.py", line 87, in getCompanyData\n    return getCompanyData(ipos)\n  File "/Users/Brandon/Develop/ipo_web2py/applications/ipos/controllers/default.py", line 87, in getCompanyData\n    return getCompanyData(ipos)\n  File "/Users/Brandon/Develop/ipo_web2py/applications/ipos/controllers/default.py", line 87, in getCompanyData\n    return getCompanyData(ipos)\n  File "/Users/Brandon/Develop/ipo_web2py/applications/ipos/controllers/default.py", line 87, in getCompanyData\n    return getCompanyData(ipos)\n  File "/Users/Brandon/Develop/ipo_web2py/applications/ipos/controllers/default.py", line 87, in getCompanyData\n    return getCompanyData(ipos)\n  File "/Users/Brandon/Develop/ipo_web2py/applications/ipos/controllers/default.py", line 87, in getCompanyData\n    return getCompanyData(ipos)\n  File "/Users/Brandon/Develop/ipo_web2py/applications/ipos/controllers/default.py", line 87, in getCompanyData\n    return getCompanyData(ipos)\n  File "/Users/Brandon/Develop/ipo_web2py/applications/ipos/controllers/default.py", line 87, in getCompanyData\n    return getCompanyData(ipos)\n  File "/Users/Brandon/Develop/ipo_web2py/applications/ipos/controllers/default.py", line 87, in getCompanyData\n    return getCompanyData(ipos)\n  File "/Users/Brandon/Develop/ipo_web2py/applications/ipos/controllers/default.py", line 87, in getCompanyData\n    return getCompanyData(ipos)\n  File "/Users/Brandon/Develop/ipo_web2py/applications/ipos/controllers/default.py", line 87, in getCompanyData\n    return getCompanyData(ipos)\n  File "/Users/Brandon/Develop/ipo_web2py/applications/ipos/controllers/default.py", line 87, in getCompanyData\n    return getCompanyData(ipos)\n  File "/Users/Brandon/Develop/ipo_web2py/applications/ipos/controllers/default.py", line 87, in getCompanyData\n    return getCompanyData(ipos)\n  File "/Users/Brandon/Develop/ipo_web2py/applications/ipos/controllers/default.py", line 87, in getCompanyData\n    return getCompanyData(ipos)\n  File "/Users/Brandon/Develop/ipo_web2py/applications/ipos/controllers/default.py", line 87, in getCompanyData\n    return getCompanyData(ipos)\n  File "/Users/Brandon/Develop/ipo_web2py/applications/ipos/controllers/default.py", line 87, in getCompanyData\n    return getCompanyData(ipos)\n  File "/Users/Brandon/Develop/ipo_web2py/applications/ipos/controllers/default.py", line 87, in getCompanyData\n    return getCompanyData(ipos)\n  File "/Users/Brandon/Develop/ipo_web2py/applications/ipos/controllers/default.py", line 87, in getCompanyData\n    return getCompanyData(ipos)\n  File "/Users/Brandon/Develop/ipo_web2py/applications/ipos/controllers/default.py", line 87, in getCompanyData\n    return getCompanyData(ipos)\n  File "/Users/Brandon/Develop/ipo_web2py/applications/ipos/controllers/default.py", line 87, in getCompanyData\n    return getCompanyData(ipos)\n  File "/Users/Brandon/Develop/ipo_web2py/applications/ipos/controllers/default.py", line 87, in getCompanyData\n    return getCompanyData(ipos)\n  File "/Users/Brandon/Develop/ipo_web2py/applications/ipos/controllers/default.py", line 87, in getCompanyData\n    return getCompanyData(ipos)\n  File "/Users/Brandon/Develop/ipo_web2py/applications/ipos/controllers/default.py", line 87, in getCompanyData\n    return getCompanyData(ipos)\n  File "/Users/Brandon/Develop/ipo_web2py/applications/ipos/controllers/default.py", line 87, in getCompanyData\n    return getCompanyData(ipos)\n  File "/Users/Brandon/Develop/ipo_web2py/applications/ipos/controllers/default.py", line 87, in getCompanyData\n    return getCompanyData(ipos)\n  File "/Users/Brandon/Develop/ipo_web2py/applications/ipos/controllers/default.py", line 87, in getCompanyData\n    return getCompanyData(ipos)\n  File "/Users/Brandon/Develop/ipo_web2py/applications/ipos/controllers/default.py", line 87, in getCompanyData\n    return getCompanyData(ipos)\n  File "/Users/Brandon/Develop/ipo_web2py/applications/ipos/controllers/default.py", line 87, in getCompanyData\n    return getCompanyData(ipos)\n  File "/Users/Brandon/Develop/ipo_web2py/applications/ipos/controllers/default.py", line 87, in getCompanyData\n    return getCompanyData(ipos)\n  File "/Users/Brandon/Develop/ipo_web2py/applications/ipos/controllers/default.py", line 87, in getCompanyData\n    return getCompanyData(ipos)\n  File "/Users/Brandon/Develop/ipo_web2py/applications/ipos/controllers/default.py", line 87, in getCompanyData\n    return getCompanyData(ipos)\n  File "/Users/Brandon/Develop/ipo_web2py/applications/ipos/controllers/default.py", line 87, in getCompanyData\n    return getCompanyData(ipos)\n  File "/Users/Brandon/Develop/ipo_web2py/applications/ipos/controllers/default.py", line 87, in getCompanyData\n    return getCompanyData(ipos)\n  File "/Users/Brandon/Develop/ipo_web2py/applications/ipos/controllers/default.py", line 87, in getCompanyData\n    return getCompanyData(ipos)\n  File "/Users/Brandon/Develop/ipo_web2py/applications/ipos/controllers/default.py", line 87, in getCompanyData\n    return getCompanyData(ipos)\n  File "/Users/Brandon/Develop/ipo_web2py/applications/ipos/controllers/default.py", line 87, in getCompanyData\n    return getCompanyData(ipos)\n  File "/Users/Brandon/Develop/ipo_web2py/applications/ipos/controllers/default.py", line 87, in getCompanyData\n    return getCompanyData(ipos)\n  File "/Users/Brandon/Develop/ipo_web2py/applications/ipos/controllers/default.py", line 87, in getCompanyData\n    return getCompanyData(ipos)\n  File "/Users/Brandon/Develop/ipo_web2py/applications/ipos/controllers/default.py", line 87, in getCompanyData\n    return getCompanyData(ipos)\n  File "/Users/Brandon/Develop/ipo_web2py/applications/ipos/controllers/default.py", line 87, in getCompanyData\n    return getCompanyData(ipos)\n  File "/Users/Brandon/Develop/ipo_web2py/applications/ipos/controllers/default.py", line 87, in getCompanyData\n    return getCompanyData(ipos)\n  File "/Users/Brandon/Develop/ipo_web2py/applications/ipos/controllers/default.py", line 87, in getCompanyData\n    return getCompanyData(ipos)\n  File "/Users/Brandon/Develop/ipo_web2py/applications/ipos/controllers/default.py", line 87, in getCompanyData\n    return getCompanyData(ipos)\n  File "/Users/Brandon/Develop/ipo_web2py/applications/ipos/controllers/default.py", line 87, in getCompanyData\n    return getCompanyData(ipos)\n  File "/Users/Brandon/Develop/ipo_web2py/applications/ipos/controllers/default.py", line 87, in getCompanyData\n    return getCompanyData(ipos)\n  File "/Users/Brandon/Develop/ipo_web2py/applications/ipos/controllers/default.py", line 87, in getCompanyData\n    return getCompanyData(ipos)\n  File "/Users/Brandon/Develop/ipo_web2py/applications/ipos/controllers/default.py", line 87, in getCompanyData\n    return getCompanyData(ipos)\n  File "/Users/Brandon/Develop/ipo_web2py/applications/ipos/controllers/default.py", line 87, in getCompanyData\n    return getCompanyData(ipos)\n  File "/Users/Brandon/Develop/ipo_web2py/applications/ipos/controllers/default.py", line 87, in getCompanyData\n    return getCompanyData(ipos)\n  File "/Users/Brandon/Develop/ipo_web2py/applications/ipos/controllers/default.py", line 87, in getCompanyData\n    return getCompanyData(ipos)\n  File "/Users/Brandon/Develop/ipo_web2py/applications/ipos/controllers/default.py", line 87, in getCompanyData\n    return getCompanyData(ipos)\n  File "/Users/Brandon/Develop/ipo_web2py/applications/ipos/controllers/default.py", line 87, in getCompanyData\n    return getCompanyData(ipos)\n  File "/Users/Brandon/Develop/ipo_web2py/applications/ipos/controllers/default.py", line 87, in getCompanyData\n    return getCompanyData(ipos)\n  File "/Users/Brandon/Develop/ipo_web2py/applications/ipos/controllers/default.py", line 87, in getCompanyData\n    return getCompanyData(ipos)\n  File "/Users/Brandon/Develop/ipo_web2py/applications/ipos/controllers/default.py", line 87, in getCompanyData\n    return getCompanyData(ipos)\n  File "/Users/Brandon/Develop/ipo_web2py/applications/ipos/controllers/default.py", line 87, in getCompanyData\n    return getCompanyData(ipos)\n  File "/Users/Brandon/Develop/ipo_web2py/applications/ipos/controllers/default.py", line 87, in getCompanyData\n    return getCompanyData(ipos)\n  File "/Users/Brandon/Develop/ipo_web2py/applications/ipos/controllers/default.py", line 87, in getCompanyData\n    return getCompanyData(ipos)\n  File "/Users/Brandon/Develop/ipo_web2py/applications/ipos/controllers/default.py", line 87, in getCompanyData\n    return getCompanyData(ipos)\n  File "/Users/Brandon/Develop/ipo_web2py/applications/ipos/controllers/default.py", line 87, in getCompanyData\n    return getCompanyData(ipos)\n  File "/Users/Brandon/Develop/ipo_web2py/applications/ipos/controllers/default.py", line 87, in getCompanyData\n    return getCompanyData(ipos)\n  File "/Users/Brandon/Develop/ipo_web2py/applications/ipos/controllers/default.py", line 87, in getCompanyData\n    return getCompanyData(ipos)\n  File "/Users/Brandon/Develop/ipo_web2py/applications/ipos/controllers/default.py", line 87, in getCompanyData\n    return getCompanyData(ipos)\n  File "/Users/Brandon/Develop/ipo_web2py/applications/ipos/controllers/default.py", line 87, in getCompanyData\n    return getCompanyData(ipos)\n  File "/Users/Brandon/Develop/ipo_web2py/applications/ipos/controllers/default.py", line 87, in getCompanyData\n    return getCompanyData(ipos)\n  File "/Users/Brandon/Develop/ipo_web2py/applications/ipos/controllers/default.py", line 87, in getCompanyData\n    return getCompanyData(ipos)\n  File "/Users/Brandon/Develop/ipo_web2py/applications/ipos/controllers/default.py", line 87, in getCompanyData\n    return getCompanyData(ipos)\n  File "/Users/Brandon/Develop/ipo_web2py/applications/ipos/controllers/default.py", line 87, in getCompanyData\n    return getCompanyData(ipos)\n  File "/Users/Brandon/Develop/ipo_web2py/applications/ipos/controllers/default.py", line 87, in getCompanyData\n    return getCompanyData(ipos)\n  File "/Users/Brandon/Develop/ipo_web2py/applications/ipos/controllers/default.py", line 87, in getCompanyData\n    return getCompanyData(ipos)\n  File "/Users/Brandon/Develop/ipo_web2py/applications/ipos/controllers/default.py", line 87, in getCompanyData\n    return getCompanyData(ipos)\n  File "/Users/Brandon/Develop/ipo_web2py/applications/ipos/controllers/default.py", line 87, in getCompanyData\n    return getCompanyData(ipos)\n  File "/Users/Brandon/Develop/ipo_web2py/applications/ipos/controllers/default.py", line 87, in getCompanyData\n    return getCompanyData(ipos)\n  File "/Users/Brandon/Develop/ipo_web2py/applications/ipos/controllers/default.py", line 87, in getCompanyData\n    return getCompanyData(ipos)\n  File "/Users/Brandon/Develop/ipo_web2py/applications/ipos/controllers/default.py", line 87, in getCompanyData\n    return getCompanyData(ipos)\n  File "/Users/Brandon/Develop/ipo_web2py/applications/ipos/controllers/default.py", line 87, in getCompanyData\n    return getCompanyData(ipos)\n  File "/Users/Brandon/Develop/ipo_web2py/applications/ipos/controllers/default.py", line 87, in getCompanyData\n    return getCompanyData(ipos)\n  File "/Users/Brandon/Develop/ipo_web2py/applications/ipos/controllers/default.py", line 87, in getCompanyData\n    return getCompanyData(ipos)\n  File "/Users/Brandon/Develop/ipo_web2py/applications/ipos/controllers/default.py", line 87, in getCompanyData\n    return getCompanyData(ipos)\n  File "/Users/Brandon/Develop/ipo_web2py/applications/ipos/controllers/default.py", line 87, in getCompanyData\n    return getCompanyData(ipos)\n  File "/Users/Brandon/Develop/ipo_web2py/applications/ipos/controllers/default.py", line 87, in getCompanyData\n    return getCompanyData(ipos)\n  File "/Users/Brandon/Develop/ipo_web2py/applications/ipos/controllers/default.py", line 87, in getCompanyData\n    return getCompanyData(ipos)\n  File "/Users/Brandon/Develop/ipo_web2py/applications/ipos/controllers/default.py", line 87, in getCompanyData\n    return getCompanyData(ipos)\n  File "/Users/Brandon/Develop/ipo_web2py/applications/ipos/controllers/default.py", line 87, in getCompanyData\n    return getCompanyData(ipos)\n  File "/Users/Brandon/Develop/ipo_web2py/applications/ipos/controllers/default.py", line 87, in getCompanyData\n    return getCompanyData(ipos)\n  File "/Users/Brandon/Develop/ipo_web2py/applications/ipos/controllers/default.py", line 87, in getCompanyData\n    return getCompanyData(ipos)\n  File "/Users/Brandon/Develop/ipo_web2py/applications/ipos/controllers/default.py", line 87, in getCompanyData\n    return getCompanyData(ipos)\n  File "/Users/Brandon/Develop/ipo_web2py/applications/ipos/controllers/default.py", line 87, in getCompanyData\n    return getCompanyData(ipos)\n  File "/Users/Brandon/Develop/ipo_web2py/applications/ipos/controllers/default.py", line 87, in getCompanyData\n    return getCompanyData(ipos)\n  File "/Users/Brandon/Develop/ipo_web2py/applications/ipos/controllers/default.py", line 87, in getCompanyData\n    return getCompanyData(ipos)\n  File "/Users/Brandon/Develop/ipo_web2py/applications/ipos/controllers/default.py", line 87, in getCompanyData\n    return getCompanyData(ipos)\n  File "/Users/Brandon/Develop/ipo_web2py/applications/ipos/controllers/default.py", line 87, in getCompanyData\n    return getCompanyData(ipos)\n  File "/Users/Brandon/Develop/ipo_web2py/applications/ipos/controllers/default.py", line 87, in getCompanyData\n    return getCompanyData(ipos)\n  File "/Users/Brandon/Develop/ipo_web2py/applications/ipos/controllers/default.py", line 87, in getCompanyData\n    return getCompanyData(ipos)\n  File "/Users/Brandon/Develop/ipo_web2py/applications/ipos/controllers/default.py", line 87, in getCompanyData\n    return getCompanyData(ipos)\n  File "/Users/Brandon/Develop/ipo_web2py/applications/ipos/controllers/default.py", line 87, in getCompanyData\n    return getCompanyData(ipos)\n  File "/Users/Brandon/Develop/ipo_web2py/applications/ipos/controllers/default.py", line 87, in getCompanyData\n    return getCompanyData(ipos)\n  File "/Users/Brandon/Develop/ipo_web2py/applications/ipos/controllers/default.py", line 87, in getCompanyData\n    return getCompanyData(ipos)\n  File "/Users/Brandon/Develop/ipo_web2py/applications/ipos/controllers/default.py", line 87, in getCompanyData\n    return getCompanyData(ipos)\n  File "/Users/Brandon/Develop/ipo_web2py/applications/ipos/controllers/default.py", line 87, in getCompanyData\n    return getCompanyData(ipos)\n  File "/Users/Brandon/Develop/ipo_web2py/applications/ipos/controllers/default.py", line 87, in getCompanyData\n    return getCompanyData(ipos)\n  File "/Users/Brandon/Develop/ipo_web2py/applications/ipos/controllers/default.py", line 87, in getCompanyData\n    return getCompanyData(ipos)\n  File "/Users/Brandon/Develop/ipo_web2py/applications/ipos/controllers/default.py", line 87, in getCompanyData\n    return getCompanyData(ipos)\n  File "/Users/Brandon/Develop/ipo_web2py/applications/ipos/controllers/default.py", line 87, in getCompanyData\n    return getCompanyData(ipos)\n  File "/Users/Brandon/Develop/ipo_web2py/applications/ipos/controllers/default.py", line 87, in getCompanyData\n    return getCompanyData(ipos)\n  File "/Users/Brandon/Develop/ipo_web2py/applications/ipos/controllers/default.py", line 87, in getCompanyData\n    return getCompanyData(ipos)\n  File "/Users/Brandon/Develop/ipo_web2py/applications/ipos/controllers/default.py", line 87, in getCompanyData\n    return getCompanyData(ipos)\n  File "/Users/Brandon/Develop/ipo_web2py/applications/ipos/controllers/default.py", line 87, in getCompanyData\n    return getCompanyData(ipos)\n  File "/Users/Brandon/Develop/ipo_web2py/applications/ipos/controllers/default.py", line 87, in getCompanyData\n    return getCompanyData(ipos)\n  File "/Users/Brandon/Develop/ipo_web2py/applications/ipos/controllers/default.py", line 87, in getCompanyData\n    return getCompanyData(ipos)\n  File "/Users/Brandon/Develop/ipo_web2py/applications/ipos/controllers/default.py", line 87, in getCompanyData\n    return getCompanyData(ipos)\n  File "/Users/Brandon/Develop/ipo_web2py/applications/ipos/controllers/default.py", line 87, in getCompanyData\n    return getCompanyData(ipos)\n  File "/Users/Brandon/Develop/ipo_web2py/applications/ipos/controllers/default.py", line 87, in getCompanyData\n    return getCompanyData(ipos)\n  File "/Users/Brandon/Develop/ipo_web2py/applications/ipos/controllers/default.py", line 87, in getCompanyData\n    return getCompanyData(ipos)\n  File "/Users/Brandon/Develop/ipo_web2py/applications/ipos/controllers/default.py", line 87, in getCompanyData\n    return getCompanyData(ipos)\n  File "/Users/Brandon/Develop/ipo_web2py/applications/ipos/controllers/default.py", line 87, in getCompanyData\n    return getCompanyData(ipos)\n  File "/Users/Brandon/Develop/ipo_web2py/applications/ipos/controllers/default.py", line 87, in getCompanyData\n    return getCompanyData(ipos)\n  File "/Users/Brandon/Develop/ipo_web2py/applications/ipos/controllers/default.py", line 87, in getCompanyData\n    return getCompanyData(ipos)\n  File "/Users/Brandon/Develop/ipo_web2py/applications/ipos/controllers/default.py", line 87, in getCompanyData\n    return getCompanyData(ipos)\n  File "/Users/Brandon/Develop/ipo_web2py/applications/ipos/controllers/default.py", line 87, in getCompanyData\n    return getCompanyData(ipos)\n  File "/Users/Brandon/Develop/ipo_web2py/applications/ipos/controllers/default.py", line 87, in getCompanyData\n    return getCompanyData(ipos)\n  File "/Users/Brandon/Develop/ipo_web2py/applications/ipos/controllers/default.py", line 87, in getCompanyData\n    return getCompanyData(ipos)\n  File "/Users/Brandon/Develop/ipo_web2py/applications/ipos/controllers/default.py", line 87, in getCompanyData\n    return getCompanyData(ipos)\n  File "/Users/Brandon/Develop/ipo_web2py/applications/ipos/controllers/default.py", line 87, in getCompanyData\n    return getCompanyData(ipos)\n  File "/Users/Brandon/Develop/ipo_web2py/applications/ipos/controllers/default.py", line 87, in getCompanyData\n    return getCompanyData(ipos)\n  File "/Users/Brandon/Develop/ipo_web2py/applications/ipos/controllers/default.py", line 87, in getCompanyData\n    return getCompanyData(ipos)\n  File "/Users/Brandon/Develop/ipo_web2py/applications/ipos/controllers/default.py", line 87, in getCompanyData\n    return getCompanyData(ipos)\n  File "/Users/Brandon/Develop/ipo_web2py/applications/ipos/controllers/default.py", line 87, in getCompanyData\n    return getCompanyData(ipos)\n  File "/Users/Brandon/Develop/ipo_web2py/applications/ipos/controllers/default.py", line 87, in getCompanyData\n    return getCompanyData(ipos)\n  File "/Users/Brandon/Develop/ipo_web2py/applications/ipos/controllers/default.py", line 87, in getCompanyData\n    return getCompanyData(ipos)\n  File "/Users/Brandon/Develop/ipo_web2py/applications/ipos/controllers/default.py", line 87, in getCompanyData\n    return getCompanyData(ipos)\n  File "/Users/Brandon/Develop/ipo_web2py/applications/ipos/controllers/default.py", line 87, in getCompanyData\n    return getCompanyData(ipos)\n  File "/Users/Brandon/Develop/ipo_web2py/applications/ipos/controllers/default.py", line 87, in getCompanyData\n    return getCompanyData(ipos)\n  File "/Users/Brandon/Develop/ipo_web2py/applications/ipos/controllers/default.py", line 87, in getCompanyData\n    return getCompanyData(ipos)\n  File "/Users/Brandon/Develop/ipo_web2py/applications/ipos/controllers/default.py", line 87, in getCompanyData\n    return getCompanyData(ipos)\n  File "/Users/Brandon/Develop/ipo_web2py/applications/ipos/controllers/default.py", line 87, in getCompanyData\n    return getCompanyData(ipos)\n  File "/Users/Brandon/Develop/ipo_web2py/applications/ipos/controllers/default.py", line 87, in getCompanyData\n    return getCompanyData(ipos)\n  File "/Users/Brandon/Develop/ipo_web2py/applications/ipos/controllers/default.py", line 87, in getCompanyData\n    return getCompanyData(ipos)\n  File "/Users/Brandon/Develop/ipo_web2py/applications/ipos/controllers/default.py", line 87, in getCompanyData\n    return getCompanyData(ipos)\n  File "/Users/Brandon/Develop/ipo_web2py/applications/ipos/controllers/default.py", line 87, in getCompanyData\n    return getCompanyData(ipos)\n  File "/Users/Brandon/Develop/ipo_web2py/applications/ipos/controllers/default.py", line 87, in getCompanyData\n    return getCompanyData(ipos)\n  File "/Users/Brandon/Develop/ipo_web2py/applications/ipos/controllers/default.py", line 87, in getCompanyData\n    return getCompanyData(ipos)\n  File "/Users/Brandon/Develop/ipo_web2py/applications/ipos/controllers/default.py", line 87, in getCompanyData\n    return getCompanyData(ipos)\n  File "/Users/Brandon/Develop/ipo_web2py/applications/ipos/controllers/default.py", line 87, in getCompanyData\n    return getCompanyData(ipos)\n  File "/Users/Brandon/Develop/ipo_web2py/applications/ipos/controllers/default.py", line 87, in getCompanyData\n    return getCompanyData(ipos)\n  File "/Users/Brandon/Develop/ipo_web2py/applications/ipos/controllers/default.py", line 87, in getCompanyData\n    return getCompanyData(ipos)\n  File "/Users/Brandon/Develop/ipo_web2py/applications/ipos/controllers/default.py", line 87, in getCompanyData\n    return getCompanyData(ipos)\n  File "/Users/Brandon/Develop/ipo_web2py/applications/ipos/controllers/default.py", line 87, in getCompanyData\n    return getCompanyData(ipos)\n  File "/Users/Brandon/Develop/ipo_web2py/applications/ipos/controllers/default.py", line 87, in getCompanyData\n    return getCompanyData(ipos)\n  File "/Users/Brandon/Develop/ipo_web2py/applications/ipos/controllers/default.py", line 87, in getCompanyData\n    return getCompanyData(ipos)\n  File "/Users/Brandon/Develop/ipo_web2py/applications/ipos/controllers/default.py", line 87, in getCompanyData\n    return getCompanyData(ipos)\n  File "/Users/Brandon/Develop/ipo_web2py/applications/ipos/controllers/default.py", line 87, in getCompanyData\n    return getCompanyData(ipos)\n  File "/Users/Brandon/Develop/ipo_web2py/applications/ipos/controllers/default.py", line 87, in getCompanyData\n    return getCompanyData(ipos)\n  File "/Users/Brandon/Develop/ipo_web2py/applications/ipos/controllers/default.py", line 87, in getCompanyData\n    return getCompanyData(ipos)\n  File "/Users/Brandon/Develop/ipo_web2py/applications/ipos/controllers/default.py", line 87, in getCompanyData\n    return getCompanyData(ipos)\n  File "/Users/Brandon/Develop/ipo_web2py/applications/ipos/controllers/default.py", line 87, in getCompanyData\n    return getCompanyData(ipos)\n  File "/Users/Brandon/Develop/ipo_web2py/applications/ipos/controllers/default.py", line 87, in getCompanyData\n    return getCompanyData(ipos)\n  File "/Users/Brandon/Develop/ipo_web2py/applications/ipos/controllers/default.py", line 87, in getCompanyData\n    return getCompanyData(ipos)\n  File "/Users/Brandon/Develop/ipo_web2py/applications/ipos/controllers/default.py", line 87, in getCompanyData\n    return getCompanyData(ipos)\n  File "/Users/Brandon/Develop/ipo_web2py/applications/ipos/controllers/default.py", line 87, in getCompanyData\n    return getCompanyData(ipos)\n  File "/Users/Brandon/Develop/ipo_web2py/applications/ipos/controllers/default.py", line 87, in getCompanyData\n    return getCompanyData(ipos)\n  File "/Users/Brandon/Develop/ipo_web2py/applications/ipos/controllers/default.py", line 87, in getCompanyData\n    return getCompanyData(ipos)\n  File "/Users/Brandon/Develop/ipo_web2py/applications/ipos/controllers/default.py", line 87, in getCompanyData\n    return getCompanyData(ipos)\n  File "/Users/Brandon/Develop/ipo_web2py/applications/ipos/controllers/default.py", line 87, in getCompanyData\n    return getCompanyData(ipos)\n  File "/Users/Brandon/Develop/ipo_web2py/applications/ipos/controllers/default.py", line 87, in getCompanyData\n    return getCompanyData(ipos)\n  File "/Users/Brandon/Develop/ipo_web2py/applications/ipos/controllers/default.py", line 87, in getCompanyData\n    return getCompanyData(ipos)\n  File "/Users/Brandon/Develop/ipo_web2py/applications/ipos/controllers/default.py", line 87, in getCompanyData\n    return getCompanyData(ipos)\n  File "/Users/Brandon/Develop/ipo_web2py/applications/ipos/controllers/default.py", line 87, in getCompanyData\n    return getCompanyData(ipos)\n  File "/Users/Brandon/Develop/ipo_web2py/applications/ipos/controllers/default.py", line 87, in getCompanyData\n    return getCompanyData(ipos)\n  File "/Users/Brandon/Develop/ipo_web2py/applications/ipos/controllers/default.py", line 87, in getCompanyData\n    return getCompanyData(ipos)\n  File "/Users/Brandon/Develop/ipo_web2py/applications/ipos/controllers/default.py", line 87, in getCompanyData\n    return getCompanyData(ipos)\n  File "/Users/Brandon/Develop/ipo_web2py/applications/ipos/controllers/default.py", line 87, in getCompanyData\n    return getCompanyData(ipos)\n  File "/Users/Brandon/Develop/ipo_web2py/applications/ipos/controllers/default.py", line 87, in getCompanyData\n    return getCompanyData(ipos)\n  File "/Users/Brandon/Develop/ipo_web2py/applications/ipos/controllers/default.py", line 87, in getCompanyData\n    return getCompanyData(ipos)\n  File "/Users/Brandon/Develop/ipo_web2py/applications/ipos/controllers/default.py", line 87, in getCompanyData\n    return getCompanyData(ipos)\n  File "/Users/Brandon/Develop/ipo_web2py/applications/ipos/controllers/default.py", line 87, in getCompanyData\n    return getCompanyData(ipos)\n  File "/Users/Brandon/Develop/ipo_web2py/applications/ipos/controllers/default.py", line 87, in getCompanyData\n    return getCompanyData(ipos)\n  File "/Users/Brandon/Develop/ipo_web2py/applications/ipos/controllers/default.py", line 87, in getCompanyData\n    return getCompanyData(ipos)\n  File "/Users/Brandon/Develop/ipo_web2py/applications/ipos/controllers/default.py", line 87, in getCompanyData\n    return getCompanyData(ipos)\n  File "/Users/Brandon/Develop/ipo_web2py/applications/ipos/controllers/default.py", line 87, in getCompanyData\n    return getCompanyData(ipos)\n  File "/Users/Brandon/Develop/ipo_web2py/applications/ipos/controllers/default.py", line 85, in getCompanyData\n    companyDescriptions = CompanyInformationFetcher(ipos).companies\n  File "applications/ipos/modules/CompanyInformationFetcher.py", line 13, in __init__\n    self.getCompanyInfo()\n  File "applications/ipos/modules/CompanyInformationFetcher.py", line 22, in getCompanyInfo\n    t = threading.Thread(name=\'Company Info Fetcher\',target=self.getParsedData,args=(companyInfo))\n  File "/Users/Brandon/anaconda/lib/python2.7/threading.py", line 689, in __init__\n    self.__started = Event()\n  File "/Users/Brandon/anaconda/lib/python2.7/threading.py", line 550, in Event\n    return _Event(*args, **kwargs)\n  File "/Users/Brandon/anaconda/lib/python2.7/threading.py", line 563, in __init__\n    self.__cond = Condition(Lock())\n  File "/Users/Brandon/anaconda/lib/python2.7/threading.py", line 253, in Condition\n    return _Condition(*args, **kwargs)\n  File "/Users/Brandon/anaconda/lib/python2.7/threading.py", line 261, in __init__\n    _Verbose.__init__(self, verbose)\nRuntimeError: maximum recursion depth exceeded while calling a Python object\n'
p11
s.