(dp1
S'output'
p2
S'missing "pass" in view'
p3
sS'layer'
p4
S'ParserContainer'
p5
sS'code'
p6
S"if 'message' in globals():\n    response.write('\\n<h2>', escape=False)\n    response.write(message)\n    response.write('</h2>', escape=False)"
p7
sS'snapshot'
p8
(dp9
sS'traceback'
p10
S'None\n'
p11
s.