(dp1
S'output'
p2
S'<class \'pymysql.err.ProgrammingError\'> (1146, u"Table \'ipos.company_info\' doesn\'t exist")'
p3
sS'layer'
p4
S'/Users/Brandon/Develop/ipo_web2py/applications/ipos/controllers/default.py'
p5
sS'code'
p6
S'# -*- coding: utf-8 -*-\n# this file is released under public domain and you can use without limitations\n\n# -------------------------------------------------------------------------\n# This is a sample controller\n# - index is the default action of any application\n# - user is required for authentication and authorization\n# - download is for downloading files uploaded in the db (does streaming)\n# -------------------------------------------------------------------------\n\nfrom IpoFetcher import IpoFetcher\nfrom CompanyInformationFetcher import CompanyInformationFetcher\nfrom DataMatcher import DataMatcher\nfrom Enums import DataSourceTypes\nfrom DateHandling import DateHandling\n\nimport json\nimport os\n\nno_input_text = "123__NO_INPUT_TEXT__123"\n\ndef index():\n    redirect(URL(\'matcher\'))\n\ndef matcher():\n    text_input = None\n\n    match_all=False\n    if request.vars.has_key(\'match_all\') and request.vars[\'match_all\'] == "true":\n        match_all = True\n\n    if request.vars.has_key(\'keyWords\') and request.vars[\'keyWords\']:\n        text_input = request.vars[\'keyWords\']\n    else:\n        filepath = os.path.join(request.folder, \'uploads\', \'keyWords.txt\')\n        with open(filepath, \'r\') as text_input_file:\n            text_input = text_input_file.read()\n\n    # time_to_expire = DateHandling.secondsUntilNextDay() #cache until next day - commenting out because of timezone issues\n    ipos = getIpos()\n    DateHandling.secondsUntilNextDay()\n    companyData = getCompanyData(ipos)\n    print companyData\n    # companyData = cache.disk(\'companies\', lambda: CompanyInformationFetcher(ipos).companies, time_expire=time_to_expire)    \n    matches = DataMatcher(text_input,match_all,companyData).matches\n\n    groups=[("This Week", "this_week"),("Next Week","next_week"),("Future","future")]\n    return dict(message=T(\'IPO Matcher\'),matches=matches,groups=groups,text_area_input=text_input)\n\ndef getIpos():\n    thisWeekRange = DateHandling.convertRangeToDateTimeExclusiveEndDate(DateHandling.getThisWeekRange())\n    thisWeekIpoInfo = db(db.data_source.date_time >= thisWeekRange[0] and db.data_source.date_time < thisWeekRange[1]\n        and DataSourceTypes.IPO.value in db.data_source.type and db.data_source.id == db.ipo_info.data_source_id and\n        db.company_info.id == db.ipo_info.company_id).select()\n    if thisWeekIpoInfo:\n        print thisWeekIpoInfo\n        return thisWeekIpoInfo\n    else:\n        # ipos = cache.disk(\'ipos\', lambda: IpoFetcher().ipos, time_expire=time_to_expire)  \n        ipos = IpoFetcher().ipos\n        saveIpoAndCompanyData(ipo)\n        return getIpos()\n\ndef getCompanyData(ipos):\n    time_to_expire = DateHandling.secondsUntilNextDay()\n    return CompanyInformationFetcher(ipos).companies\n    # return cache.disk(\'companies\', lambda: CompanyInformationFetcher(ipos).companies, time_expire=time_to_expire) \n    thisWeekRange = DateHandling.convertRangeToDateTimeExclusiveEndDate(DateHandling.getThisWeekRange())\n\n\n    thisWeekCompanyDescription = db(db.data_source.date_time >= thisWeekRange[0] and db.data_source.date_time < thisWeekRange[1]\n        and DataSourceTypes.COMPANY_DESCRIPTION.value in db.data_source.type and db.company_info.id == db.company_description.company_id).select()\n    if thisWeekCompanyDescription:\n        return thisWeekCompanyDescription\n    else:\n        companyDescriptions = CompanyInformationFetcher(ipos).companies\n        saveCompanyDescription(companyDescriptions)\n        return getCompanyData(ipos)\n\n\ndef saveCompanyDescription(companyDescriptions):\n    return\n\ndef createNewDataSource(source, type):\n    return db.data_source.insert(source=source,type=type,date_time=datetime.today())\n\ndef saveIpoAndCompanyData(ipos):\n    data_source_id = createNewDataSource("MarketWatch",[DataSourceTypes.IPO.value, DataSourceTypes.COMPANY.value])\n    this_week_range = DateHandling.getThisWeekRange()\n    next_week_range = DateHandling.getNextWeekRange()\n    for group in ipos.keys():\n        date_week = DateHandling.getDateWeekFromGroup(group)\n        for company in ipos[group]:\n            company_name = company[0]\n            company_ticker = company[1]\n            companyInDb = db(db.company_info.name==company_name).select().first()\n            if not companyInDb: #if company doesn\'t exist, create it\n                company_id = db.company_info.insert(name=company_name,data_source_id=data_source_id)\n            else:\n                company_id = companyInDb.id\n            ipoInDb = db(db.ipo_info.company_id ==company_id).select().first()\n            if not ipoInDb: #Save new IPO\n                db.ipo_info.insert(company_id=company_id,data_source_id=data_source_id,\n                    date_week=date_week,intended_ticker=company_ticker)\n            else: #Update IPO info \n                ipoInDb.update_record(data_source_id=data_source_id,date_week=date_week,intended_ticker=company_ticker)\n\n\n\ndef submit_keyword_input():\n    variables={}\n    if request.vars.post_form == "submit":\n        variables[\'keyWords\'] = request.vars.text_input\n    elif request.vars.post_form =="match_all":\n        variables[\'match_all\'] = "true"\n    redirect(URL(\'matcher\',vars=variables))\n\n\n@cache.action()\ndef download():\n    """\n    allows downloading of uploaded files\n    http://..../[app]/default/download/[filename]\n    """\n    return response.download(request, db)\n\n\ndef call():\n    """\n    exposes services. for example:\n    http://..../[app]/default/call/jsonrpc\n    decorate with @services.jsonrpc the functions to expose\n    supports xml, json, xmlrpc, jsonrpc, amfrpc, rss, csv\n    """\n    return service()\n\n\n\nresponse._vars=response._caller(matcher)\n'
p7
sS'snapshot'
p8
(dp9
S'exception'
p10
(dp11
S'__module__'
p12
S"'pymysql.err'"
p13
sS'__getslice__'
p14
S"<method-wrapper '__getslice__' of ProgrammingError object>"
p15
sS'__str__'
p16
S"<method-wrapper '__str__' of ProgrammingError object>"
p17
sS'__reduce__'
p18
S'<built-in method __reduce__ of ProgrammingError object>'
p19
sS'__dict__'
p20
S'{}'
p21
sS'__sizeof__'
p22
S'<built-in method __sizeof__ of ProgrammingError object>'
p23
sS'__weakref__'
p24
S'None'
p25
sS'__init__'
p26
S"<method-wrapper '__init__' of ProgrammingError object>"
p27
sS'__setattr__'
p28
S"<method-wrapper '__setattr__' of ProgrammingError object>"
p29
sS'__reduce_ex__'
p30
S'<built-in method __reduce_ex__ of ProgrammingError object>'
p31
sS'__new__'
p32
S'<built-in method __new__ of type object>'
p33
sS'__format__'
p34
S'<built-in method __format__ of ProgrammingError object>'
p35
sS'__class__'
p36
S"<class 'pymysql.err.ProgrammingError'>"
p37
sS'__doc__'
p38
S"'Exception raised for programming errors, e.g. ta...t, wrong number\\n    of parameters specified, etc.'"
p39
sS'__getitem__'
p40
S"<method-wrapper '__getitem__' of ProgrammingError object>"
p41
sS'__setstate__'
p42
S'<built-in method __setstate__ of ProgrammingError object>'
p43
sS'__getattribute__'
p44
S"<method-wrapper '__getattribute__' of ProgrammingError object>"
p45
sS'args'
p46
S'(1146, u"Table \'ipos.company_info\' doesn\'t exist")'
p47
sS'__subclasshook__'
p48
S'<built-in method __subclasshook__ of type object>'
p49
sS'__unicode__'
p50
S'<built-in method __unicode__ of ProgrammingError object>'
p51
sS'__delattr__'
p52
S"<method-wrapper '__delattr__' of ProgrammingError object>"
p53
sS'__repr__'
p54
S"<method-wrapper '__repr__' of ProgrammingError object>"
p55
sS'__hash__'
p56
S"<method-wrapper '__hash__' of ProgrammingError object>"
p57
ssS'evalue'
p58
S'(1146, u"Table \'ipos.company_info\' doesn\'t exist")'
p59
sS'request'
p60
cgluon.html
XML_unpickle
p61
(S's\r[\x00\x00<div><table><tr><td style="font-weight:bold;vertical-align:top;">ajax</td><td style="vertical-align:top;">:</td><td><div>False</div></td></tr><tr><td style="font-weight:bold;vertical-align:top;">application</td><td style="vertical-align:top;">:</td><td><div>ipos</div></td></tr><tr><td style="font-weight:bold;vertical-align:top;">args</td><td style="vertical-align:top;">:</td><td><div><table></table></div></td></tr><tr><td style="font-weight:bold;vertical-align:top;">cid</td><td style="vertical-align:top;">:</td><td><div>None</div></td></tr><tr><td style="font-weight:bold;vertical-align:top;">client</td><td style="vertical-align:top;">:</td><td><div>127.0.0.1</div></td></tr><tr><td style="font-weight:bold;vertical-align:top;">controller</td><td style="vertical-align:top;">:</td><td><div>default</div></td></tr><tr><td style="font-weight:bold;vertical-align:top;">cookies</td><td style="vertical-align:top;">:</td><td><div><table><tr><td style="font-weight:bold;vertical-align:top;">session_id_admin</td><td style="vertical-align:top;">:</td><td><div>127.0.0.1-beeec638-7b68-46fd-8490-21d1c7a447ad<table><tr><td style="font-weight:bold;vertical-align:top;">comment</td><td style="vertical-align:top;">:</td><td><div></div></td></tr><tr><td style="font-weight:bold;vertical-align:top;">domain</td><td style="vertical-align:top;">:</td><td><div></div></td></tr><tr><td style="font-weight:bold;vertical-align:top;">expires</td><td style="vertical-align:top;">:</td><td><div></div></td></tr><tr><td style="font-weight:bold;vertical-align:top;">httponly</td><td style="vertical-align:top;">:</td><td><div></div></td></tr><tr><td style="font-weight:bold;vertical-align:top;">max-age</td><td style="vertical-align:top;">:</td><td><div></div></td></tr><tr><td style="font-weight:bold;vertical-align:top;">path</td><td style="vertical-align:top;">:</td><td><div></div></td></tr><tr><td style="font-weight:bold;vertical-align:top;">secure</td><td style="vertical-align:top;">:</td><td><div></div></td></tr><tr><td style="font-weight:bold;vertical-align:top;">version</td><td style="vertical-align:top;">:</td><td><div></div></td></tr></table></div></td></tr><tr><td style="font-weight:bold;vertical-align:top;">session_id_ipos</td><td style="vertical-align:top;">:</td><td><div>127.0.0.1-f095ce35-f26b-4d18-bb69-678848d8b7e1<table><tr><td style="font-weight:bold;vertical-align:top;">comment</td><td style="vertical-align:top;">:</td><td><div></div></td></tr><tr><td style="font-weight:bold;vertical-align:top;">domain</td><td style="vertical-align:top;">:</td><td><div></div></td></tr><tr><td style="font-weight:bold;vertical-align:top;">expires</td><td style="vertical-align:top;">:</td><td><div></div></td></tr><tr><td style="font-weight:bold;vertical-align:top;">httponly</td><td style="vertical-align:top;">:</td><td><div></div></td></tr><tr><td style="font-weight:bold;vertical-align:top;">max-age</td><td style="vertical-align:top;">:</td><td><div></div></td></tr><tr><td style="font-weight:bold;vertical-align:top;">path</td><td style="vertical-align:top;">:</td><td><div></div></td></tr><tr><td style="font-weight:bold;vertical-align:top;">secure</td><td style="vertical-align:top;">:</td><td><div></div></td></tr><tr><td style="font-weight:bold;vertical-align:top;">version</td><td style="vertical-align:top;">:</td><td><div></div></td></tr></table></div></td></tr><tr><td style="font-weight:bold;vertical-align:top;">session_id_welcome</td><td style="vertical-align:top;">:</td><td><div>127.0.0.1-56a76cfa-0460-4a68-8881-22da4a2887ab<table><tr><td style="font-weight:bold;vertical-align:top;">comment</td><td style="vertical-align:top;">:</td><td><div></div></td></tr><tr><td style="font-weight:bold;vertical-align:top;">domain</td><td style="vertical-align:top;">:</td><td><div></div></td></tr><tr><td style="font-weight:bold;vertical-align:top;">expires</td><td style="vertical-align:top;">:</td><td><div></div></td></tr><tr><td style="font-weight:bold;vertical-align:top;">httponly</td><td style="vertical-align:top;">:</td><td><div></div></td></tr><tr><td style="font-weight:bold;vertical-align:top;">max-age</td><td style="vertical-align:top;">:</td><td><div></div></td></tr><tr><td style="font-weight:bold;vertical-align:top;">path</td><td style="vertical-align:top;">:</td><td><div></div></td></tr><tr><td style="font-weight:bold;vertical-align:top;">secure</td><td style="vertical-align:top;">:</td><td><div></div></td></tr><tr><td style="font-weight:bold;vertical-align:top;">version</td><td style="vertical-align:top;">:</td><td><div></div></td></tr></table></div></td></tr></table></div></td></tr><tr><td style="font-weight:bold;vertical-align:top;">env</td><td style="vertical-align:top;">:</td><td><div><table><tr><td style="font-weight:bold;vertical-align:top;">HTTP_ACCEPT</td><td style="vertical-align:top;">:</td><td><div>text/html,application/xhtml+xml,application/xml;q=0.9,image/webp,*/*;q=0.8</div></td></tr><tr><td style="font-weight:bold;vertical-align:top;">HTTP_ACCEPT_ENCODING</td><td style="vertical-align:top;">:</td><td><div>gzip, deflate, sdch, br</div></td></tr><tr><td style="font-weight:bold;vertical-align:top;">HTTP_ACCEPT_LANGUAGE</td><td style="vertical-align:top;">:</td><td><div>en-US,en;q=0.8</div></td></tr><tr><td style="font-weight:bold;vertical-align:top;">HTTP_CONNECTION</td><td style="vertical-align:top;">:</td><td><div>keep-alive</div></td></tr><tr><td style="font-weight:bold;vertical-align:top;">HTTP_COOKIE</td><td style="vertical-align:top;">:</td><td><div>session_id_welcome=127.0.0.1-56a76cfa-0460-4a68-8881-22da4a2887ab; _ga=GA1.1.1005005347.1493353778; _gid=GA1.1.580782043.1494183808; session_id_admin=127.0.0.1-beeec638-7b68-46fd-8490-21d1c7a447ad; session_id_ipos=127.0.0.1-f095ce35-f26b-4d18-bb69-678848d8b7e1</div></td></tr><tr><td style="font-weight:bold;vertical-align:top;">HTTP_HOST</td><td style="vertical-align:top;">:</td><td><div>127.0.0.1:8000</div></td></tr><tr><td style="font-weight:bold;vertical-align:top;">HTTP_UPGRADE_INSECURE_REQUESTS</td><td style="vertical-align:top;">:</td><td><div>1</div></td></tr><tr><td style="font-weight:bold;vertical-align:top;">HTTP_USER_AGENT</td><td style="vertical-align:top;">:</td><td><div>Mozilla/5.0 (Macintosh; Intel Mac OS X 10_12_1) AppleWebKit/537.36 (KHTML, like Gecko) Chrome/57.0.2987.133 Safari/537.36</div></td></tr><tr><td style="font-weight:bold;vertical-align:top;">PATH_INFO</td><td style="vertical-align:top;">:</td><td><div>/matcher</div></td></tr><tr><td style="font-weight:bold;vertical-align:top;">QUERY_STRING</td><td style="vertical-align:top;">:</td><td><div></div></td></tr><tr><td style="font-weight:bold;vertical-align:top;">REMOTE_ADDR</td><td style="vertical-align:top;">:</td><td><div>127.0.0.1</div></td></tr><tr><td style="font-weight:bold;vertical-align:top;">REMOTE_PORT</td><td style="vertical-align:top;">:</td><td><div>50544</div></td></tr><tr><td style="font-weight:bold;vertical-align:top;">REQUEST_METHOD</td><td style="vertical-align:top;">:</td><td><div>GET</div></td></tr><tr><td style="font-weight:bold;vertical-align:top;">SCRIPT_NAME</td><td style="vertical-align:top;">:</td><td><div></div></td></tr><tr><td style="font-weight:bold;vertical-align:top;">SERVER_NAME</td><td style="vertical-align:top;">:</td><td><div>Brandons-MacBook-Pro-10.local</div></td></tr><tr><td style="font-weight:bold;vertical-align:top;">SERVER_PORT</td><td style="vertical-align:top;">:</td><td><div>8000</div></td></tr><tr><td style="font-weight:bold;vertical-align:top;">SERVER_PROTOCOL</td><td style="vertical-align:top;">:</td><td><div>HTTP/1.1</div></td></tr><tr><td style="font-weight:bold;vertical-align:top;">SERVER_SOFTWARE</td><td style="vertical-align:top;">:</td><td><div>Rocket 1.2.6</div></td></tr><tr><td style="font-weight:bold;vertical-align:top;">app_folders</td><td style="vertical-align:top;">:</td><td><div>set([&#x27;/Users/Brandon/Develop/ipo_web2py/applications/ipos/&#x27;])</div></td></tr><tr><td style="font-weight:bold;vertical-align:top;">applications_parent</td><td style="vertical-align:top;">:</td><td><div>/Users/Brandon/Develop/ipo_web2py</div></td></tr><tr><td style="font-weight:bold;vertical-align:top;">cmd_args</td><td style="vertical-align:top;">:</td><td><div><table></table></div></td></tr><tr><td style="font-weight:bold;vertical-align:top;">cmd_options</td><td style="vertical-align:top;">:</td><td><div>&lt;Values at 0x105313cf8: {&#x27;verbose&#x27;: False, &#x27;ip&#x27;: &#x27;127.0.0.1&#x27;, &#x27;debuglevel&#x27;: 30, &#x27;with_scheduler&#x27;: False, &#x27;shutdown_timeout&#x27;: 5, &#x27;taskbar&#x27;: False, &#x27;with_coverage&#x27;: False, &#x27;pid_filename&#x27;: &#x27;httpserver.pid&#x27;, &#x27;maxthreads&#x27;: None, &#x27;softcron&#x27;: False, &#x27;server_name&#x27;: &#x27;Brandons-MacBook-Pro-10.local&#x27;, &#x27;bpython&#x27;: False, &#x27;nogui&#x27;: False, &#x27;port&#x27;: 8000, &#x27;print_errors&#x27;: False, &#x27;extcron&#x27;: False, &#x27;runcron&#x27;: False, &#x27;run_system_tests&#x27;: False, &#x27;test&#x27;: None, &#x27;folder&#x27;: &#x27;/Users/Brandon/Develop/ipo_web2py&#x27;, &#x27;config&#x27;: &#x27;&#x27;, &#x27;minthreads&#x27;: None, &#x27;shell&#x27;: None, &#x27;run&#x27;: &#x27;&#x27;, &#x27;log_filename&#x27;: &#x27;httpserver.log&#x27;, &#x27;profiler_dir&#x27;: None, &#x27;args&#x27;: [&#x27;&#x27;], &#x27;socket_timeout&#x27;: 5, &#x27;ssl_ca_certificate&#x27;: None, &#x27;scheduler&#x27;: None, &#x27;interfaces&#x27;: None, &#x27;ssl_private_key&#x27;: &#x27;&#x27;, &#x27;gae&#x27;: None, &#x27;password&#x27;: &#x27;******&#x27;, &#x27;request_queue_size&#x27;: 5, &#x27;ssl_certificate&#x27;: &#x27;&#x27;, &#x27;cronjob&#x27;: False, &#x27;numthreads&#x27;: None, &#x27;quiet&#x27;: False, &#x27;import_models&#x27;: False, &#x27;timeout&#x27;: 10, &#x27;plain&#x27;: False, &#x27;nobanner&#x27;: False}&gt;</div></td></tr><tr><td style="font-weight:bold;vertical-align:top;">db_sessions</td><td style="vertical-align:top;">:</td><td><div>set([])</div></td></tr><tr><td style="font-weight:bold;vertical-align:top;">debugging</td><td style="vertical-align:top;">:</td><td><div>False</div></td></tr><tr><td style="font-weight:bold;vertical-align:top;">gluon_parent</td><td style="vertical-align:top;">:</td><td><div>/Users/Brandon/Develop/ipo_web2py</div></td></tr><tr><td style="font-weight:bold;vertical-align:top;">http_accept</td><td style="vertical-align:top;">:</td><td><div>text/html,application/xhtml+xml,application/xml;q=0.9,image/webp,*/*;q=0.8</div></td></tr><tr><td style="font-weight:bold;vertical-align:top;">http_accept_encoding</td><td style="vertical-align:top;">:</td><td><div>gzip, deflate, sdch, br</div></td></tr><tr><td style="font-weight:bold;vertical-align:top;">http_accept_language</td><td style="vertical-align:top;">:</td><td><div>en-US,en;q=0.8</div></td></tr><tr><td style="font-weight:bold;vertical-align:top;">http_connection</td><td style="vertical-align:top;">:</td><td><div>keep-alive</div></td></tr><tr><td style="font-weight:bold;vertical-align:top;">http_cookie</td><td style="vertical-align:top;">:</td><td><div>session_id_welcome=127.0.0.1-56a76cfa-0460-4a68-8881-22da4a2887ab; _ga=GA1.1.1005005347.1493353778; _gid=GA1.1.580782043.1494183808; session_id_admin=127.0.0.1-beeec638-7b68-46fd-8490-21d1c7a447ad; session_id_ipos=127.0.0.1-f095ce35-f26b-4d18-bb69-678848d8b7e1</div></td></tr><tr><td style="font-weight:bold;vertical-align:top;">http_host</td><td style="vertical-align:top;">:</td><td><div>127.0.0.1:8000</div></td></tr><tr><td style="font-weight:bold;vertical-align:top;">http_upgrade_insecure_requests</td><td style="vertical-align:top;">:</td><td><div>1</div></td></tr><tr><td style="font-weight:bold;vertical-align:top;">http_user_agent</td><td style="vertical-align:top;">:</td><td><div>Mozilla/5.0 (Macintosh; Intel Mac OS X 10_12_1) AppleWebKit/537.36 (KHTML, like Gecko) Chrome/57.0.2987.133 Safari/537.36</div></td></tr><tr><td style="font-weight:bold;vertical-align:top;">is_jython</td><td style="vertical-align:top;">:</td><td><div>False</div></td></tr><tr><td style="font-weight:bold;vertical-align:top;">is_pypy</td><td style="vertical-align:top;">:</td><td><div>False</div></td></tr><tr><td style="font-weight:bold;vertical-align:top;">is_source</td><td style="vertical-align:top;">:</td><td><div>True</div></td></tr><tr><td style="font-weight:bold;vertical-align:top;">local_hosts</td><td style="vertical-align:top;">:</td><td><div><table><tr><td><div>fe80::1cbc:dfe5:de55:c354%en0</div></td></tr><tr><td><div>Brandons-MacBook-Pro-10.local</div></td></tr><tr><td><div>::ffff:127.0.0.1</div></td></tr><tr><td><div>::1</div></td></tr><tr><td><div>10.0.1.14</div></td></tr><tr><td><div>2604:5500:34:34fe:1475:cb72:68a:2a70</div></td></tr><tr><td><div>brandons-macbook-pro-10.local</div></td></tr><tr><td><div>127.0.0.1</div></td></tr></table></div></td></tr><tr><td style="font-weight:bold;vertical-align:top;">path_info</td><td style="vertical-align:top;">:</td><td><div>/matcher</div></td></tr><tr><td style="font-weight:bold;vertical-align:top;">query_string</td><td style="vertical-align:top;">:</td><td><div></div></td></tr><tr><td style="font-weight:bold;vertical-align:top;">remote_addr</td><td style="vertical-align:top;">:</td><td><div>127.0.0.1</div></td></tr><tr><td style="font-weight:bold;vertical-align:top;">remote_port</td><td style="vertical-align:top;">:</td><td><div>50544</div></td></tr><tr><td style="font-weight:bold;vertical-align:top;">request_method</td><td style="vertical-align:top;">:</td><td><div>GET</div></td></tr><tr><td style="font-weight:bold;vertical-align:top;">request_uri</td><td style="vertical-align:top;">:</td><td><div>/ipos/default/matcher</div></td></tr><tr><td style="font-weight:bold;vertical-align:top;">script_name</td><td style="vertical-align:top;">:</td><td><div></div></td></tr><tr><td style="font-weight:bold;vertical-align:top;">server_name</td><td style="vertical-align:top;">:</td><td><div>Brandons-MacBook-Pro-10.local</div></td></tr><tr><td style="font-weight:bold;vertical-align:top;">server_port</td><td style="vertical-align:top;">:</td><td><div>8000</div></td></tr><tr><td style="font-weight:bold;vertical-align:top;">server_protocol</td><td style="vertical-align:top;">:</td><td><div>HTTP/1.1</div></td></tr><tr><td style="font-weight:bold;vertical-align:top;">server_software</td><td style="vertical-align:top;">:</td><td><div>Rocket 1.2.6</div></td></tr><tr><td style="font-weight:bold;vertical-align:top;">web2py_original_uri</td><td style="vertical-align:top;">:</td><td><div>/matcher</div></td></tr><tr><td style="font-weight:bold;vertical-align:top;">web2py_path</td><td style="vertical-align:top;">:</td><td><div>/Users/Brandon/Develop/ipo_web2py</div></td></tr><tr><td style="font-weight:bold;vertical-align:top;">web2py_version</td><td style="vertical-align:top;">:</td><td><div>2.14.6-stable+timestamp.2016.05.10.00.21.47</div></td></tr><tr><td style="font-weight:bold;vertical-align:top;">wsgi.errors</td><td style="vertical-align:top;">:</td><td><div>&lt;open file &#x27;&lt;stderr&gt;&#x27;, mode &#x27;w&#x27; at 0x10028f1e0&gt;</div></td></tr><tr><td style="font-weight:bold;vertical-align:top;">wsgi.file_wrapper</td><td style="vertical-align:top;">:</td><td><div>&lt;class wsgiref.util.FileWrapper at 0x104bf7598&gt;</div></td></tr><tr><td style="font-weight:bold;vertical-align:top;">wsgi.input</td><td style="vertical-align:top;">:</td><td><div>&lt;socket._fileobject object at 0x10f341dd0&gt;</div></td></tr><tr><td style="font-weight:bold;vertical-align:top;">wsgi.multiprocess</td><td style="vertical-align:top;">:</td><td><div>False</div></td></tr><tr><td style="font-weight:bold;vertical-align:top;">wsgi.multithread</td><td style="vertical-align:top;">:</td><td><div>True</div></td></tr><tr><td style="font-weight:bold;vertical-align:top;">wsgi.run_once</td><td style="vertical-align:top;">:</td><td><div>False</div></td></tr><tr><td style="font-weight:bold;vertical-align:top;">wsgi.url_scheme</td><td style="vertical-align:top;">:</td><td><div>http</div></td></tr><tr><td style="font-weight:bold;vertical-align:top;">wsgi.version</td><td style="vertical-align:top;">:</td><td><div><table><tr><td><div>1</div></td></tr><tr><td><div>0</div></td></tr></table></div></td></tr><tr><td style="font-weight:bold;vertical-align:top;">wsgi_errors</td><td style="vertical-align:top;">:</td><td><div>&lt;open file &#x27;&lt;stderr&gt;&#x27;, mode &#x27;w&#x27; at 0x10028f1e0&gt;</div></td></tr><tr><td style="font-weight:bold;vertical-align:top;">wsgi_file_wrapper</td><td style="vertical-align:top;">:</td><td><div>&lt;class wsgiref.util.FileWrapper at 0x104bf7598&gt;</div></td></tr><tr><td style="font-weight:bold;vertical-align:top;">wsgi_input</td><td style="vertical-align:top;">:</td><td><div>&lt;socket._fileobject object at 0x10f341dd0&gt;</div></td></tr><tr><td style="font-weight:bold;vertical-align:top;">wsgi_multiprocess</td><td style="vertical-align:top;">:</td><td><div>False</div></td></tr><tr><td style="font-weight:bold;vertical-align:top;">wsgi_multithread</td><td style="vertical-align:top;">:</td><td><div>True</div></td></tr><tr><td style="font-weight:bold;vertical-align:top;">wsgi_run_once</td><td style="vertical-align:top;">:</td><td><div>False</div></td></tr><tr><td style="font-weight:bold;vertical-align:top;">wsgi_url_scheme</td><td style="vertical-align:top;">:</td><td><div>http</div></td></tr><tr><td style="font-weight:bold;vertical-align:top;">wsgi_version</td><td style="vertical-align:top;">:</td><td><div><table><tr><td><div>1</div></td></tr><tr><td><div>0</div></td></tr></table></div></td></tr></table></div></td></tr><tr><td style="font-weight:bold;vertical-align:top;">extension</td><td style="vertical-align:top;">:</td><td><div>html</div></td></tr><tr><td style="font-weight:bold;vertical-align:top;">folder</td><td style="vertical-align:top;">:</td><td><div>/Users/Brandon/Develop/ipo_web2py/applications/ipos/</div></td></tr><tr><td style="font-weight:bold;vertical-align:top;">function</td><td style="vertical-align:top;">:</td><td><div>matcher</div></td></tr><tr><td style="font-weight:bold;vertical-align:top;">global_settings</td><td style="vertical-align:top;">:</td><td><div><table><tr><td style="font-weight:bold;vertical-align:top;">app_folders</td><td style="vertical-align:top;">:</td><td><div>set([&#x27;/Users/Brandon/Develop/ipo_web2py/applications/ipos/&#x27;])</div></td></tr><tr><td style="font-weight:bold;vertical-align:top;">applications_parent</td><td style="vertical-align:top;">:</td><td><div>/Users/Brandon/Develop/ipo_web2py</div></td></tr><tr><td style="font-weight:bold;vertical-align:top;">cmd_args</td><td style="vertical-align:top;">:</td><td><div><table></table></div></td></tr><tr><td style="font-weight:bold;vertical-align:top;">cmd_options</td><td style="vertical-align:top;">:</td><td><div>&lt;Values at 0x105313cf8: {&#x27;verbose&#x27;: False, &#x27;ip&#x27;: &#x27;127.0.0.1&#x27;, &#x27;debuglevel&#x27;: 30, &#x27;with_scheduler&#x27;: False, &#x27;shutdown_timeout&#x27;: 5, &#x27;taskbar&#x27;: False, &#x27;with_coverage&#x27;: False, &#x27;pid_filename&#x27;: &#x27;httpserver.pid&#x27;, &#x27;maxthreads&#x27;: None, &#x27;softcron&#x27;: False, &#x27;server_name&#x27;: &#x27;Brandons-MacBook-Pro-10.local&#x27;, &#x27;bpython&#x27;: False, &#x27;nogui&#x27;: False, &#x27;port&#x27;: 8000, &#x27;print_errors&#x27;: False, &#x27;extcron&#x27;: False, &#x27;runcron&#x27;: False, &#x27;run_system_tests&#x27;: False, &#x27;test&#x27;: None, &#x27;folder&#x27;: &#x27;/Users/Brandon/Develop/ipo_web2py&#x27;, &#x27;config&#x27;: &#x27;&#x27;, &#x27;minthreads&#x27;: None, &#x27;shell&#x27;: None, &#x27;run&#x27;: &#x27;&#x27;, &#x27;log_filename&#x27;: &#x27;httpserver.log&#x27;, &#x27;profiler_dir&#x27;: None, &#x27;args&#x27;: [&#x27;&#x27;], &#x27;socket_timeout&#x27;: 5, &#x27;ssl_ca_certificate&#x27;: None, &#x27;scheduler&#x27;: None, &#x27;interfaces&#x27;: None, &#x27;ssl_private_key&#x27;: &#x27;&#x27;, &#x27;gae&#x27;: None, &#x27;password&#x27;: &#x27;******&#x27;, &#x27;request_queue_size&#x27;: 5, &#x27;ssl_certificate&#x27;: &#x27;&#x27;, &#x27;cronjob&#x27;: False, &#x27;numthreads&#x27;: None, &#x27;quiet&#x27;: False, &#x27;import_models&#x27;: False, &#x27;timeout&#x27;: 10, &#x27;plain&#x27;: False, &#x27;nobanner&#x27;: False}&gt;</div></td></tr><tr><td style="font-weight:bold;vertical-align:top;">db_sessions</td><td style="vertical-align:top;">:</td><td><div>set([])</div></td></tr><tr><td style="font-weight:bold;vertical-align:top;">debugging</td><td style="vertical-align:top;">:</td><td><div>False</div></td></tr><tr><td style="font-weight:bold;vertical-align:top;">gluon_parent</td><td style="vertical-align:top;">:</td><td><div>/Users/Brandon/Develop/ipo_web2py</div></td></tr><tr><td style="font-weight:bold;vertical-align:top;">is_jython</td><td style="vertical-align:top;">:</td><td><div>False</div></td></tr><tr><td style="font-weight:bold;vertical-align:top;">is_pypy</td><td style="vertical-align:top;">:</td><td><div>False</div></td></tr><tr><td style="font-weight:bold;vertical-align:top;">is_source</td><td style="vertical-align:top;">:</td><td><div>True</div></td></tr><tr><td style="font-weight:bold;vertical-align:top;">local_hosts</td><td style="vertical-align:top;">:</td><td><div><table><tr><td><div>fe80::1cbc:dfe5:de55:c354%en0</div></td></tr><tr><td><div>Brandons-MacBook-Pro-10.local</div></td></tr><tr><td><div>::ffff:127.0.0.1</div></td></tr><tr><td><div>::1</div></td></tr><tr><td><div>10.0.1.14</div></td></tr><tr><td><div>2604:5500:34:34fe:1475:cb72:68a:2a70</div></td></tr><tr><td><div>brandons-macbook-pro-10.local</div></td></tr><tr><td><div>127.0.0.1</div></td></tr></table></div></td></tr><tr><td style="font-weight:bold;vertical-align:top;">web2py_version</td><td style="vertical-align:top;">:</td><td><div>2.14.6-stable+timestamp.2016.05.10.00.21.47</div></td></tr></table></div></td></tr><tr><td style="font-weight:bold;vertical-align:top;">is_https</td><td style="vertical-align:top;">:</td><td><div>False</div></td></tr><tr><td style="font-weight:bold;vertical-align:top;">is_local</td><td style="vertical-align:top;">:</td><td><div>True</div></td></tr><tr><td style="font-weight:bold;vertical-align:top;">is_restful</td><td style="vertical-align:top;">:</td><td><div>False</div></td></tr><tr><td style="font-weight:bold;vertical-align:top;">is_scheduler</td><td style="vertical-align:top;">:</td><td><div>False</div></td></tr><tr><td style="font-weight:bold;vertical-align:top;">is_shell</td><td style="vertical-align:top;">:</td><td><div>False</div></td></tr><tr><td style="font-weight:bold;vertical-align:top;">now</td><td style="vertical-align:top;">:</td><td><div>datetime.datetime(2017, 5, 7, 12, 18, 34, 501858)</div></td></tr><tr><td style="font-weight:bold;vertical-align:top;">url</td><td style="vertical-align:top;">:</td><td><div>/matcher</div></td></tr><tr><td style="font-weight:bold;vertical-align:top;">utcnow</td><td style="vertical-align:top;">:</td><td><div>datetime.datetime(2017, 5, 7, 19, 18, 34, 501869)</div></td></tr><tr><td style="font-weight:bold;vertical-align:top;">wsgi</td><td style="vertical-align:top;">:</td><td><div>&lt;gluon.main.LazyWSGI object at 0x10f3f5810&gt;</div></td></tr></table></div>'
tRp62
sS'frames'
p63
(lp64
(dp65
S'file'
p66
S'/Users/Brandon/Develop/ipo_web2py/gluon/restricted.py'
p67
sS'dump'
p68
(dp69
S'environment'
p70
S"{'A': <class 'gluon.html.A'>, 'ANY_OF': <class 'gluon.validators.ANY_OF'>, 'ASSIGNJS': <function ASSIGNJS>, 'AppConfig': <function AppConfig>, 'B': <class 'gluon.html.B'>, 'BEAUTIFY': <class 'gluon.html.BEAUTIFY'>, 'BODY': <class 'gluon.html.BODY'>, 'BR': <class 'gluon.html.BR'>, 'BUTTON': <class 'gluon.html.BUTTON'>, 'CAT': <class 'gluon.html.CAT'>, ...}"
p71
sS'ccode'
p72
S'<code object <module> at 0x10f3f64b0, file "/Use...plications/ipos/controllers/default.py", line 11>'
p73
ssS'lnum'
p74
I227
sS'lines'
p75
(dp76
I224
S'            ccode = code'
p77
sI225
S'        else:'
p78
sI226
S'            ccode = compile2(code, layer)'
p79
sI227
S'        exec ccode in environment'
p80
sI228
S'    except HTTP:'
p81
sI229
S'        raise'
p82
sI230
S'    except RestrictedError:'
p83
sI231
S'        # do not encapsulate (obfuscate) the original RestrictedError'
p84
sI222
S'    try:'
p85
sI223
S'        if isinstance(code, types.CodeType):'
p86
ssS'call'
p87
S"(code='# -*- coding: utf-8 -*-\\n# this file is released ...ce()\\n\\n\\n\\nresponse._vars=response._caller(matcher)\\n', environment={'A': <class 'gluon.html.A'>, 'ANY_OF': <class 'gluon.validators.ANY_OF'>, 'ASSIGNJS': <function ASSIGNJS>, 'AppConfig': <function AppConfig>, 'B': <class 'gluon.html.B'>, 'BEAUTIFY': <class 'gluon.html.BEAUTIFY'>, 'BODY': <class 'gluon.html.BODY'>, 'BR': <class 'gluon.html.BR'>, 'BUTTON': <class 'gluon.html.BUTTON'>, 'CAT': <class 'gluon.html.CAT'>, ...}, layer='/Users/Brandon/Develop/ipo_web2py/applications/ipos/controllers/default.py')"
p88
sS'func'
p89
S'restricted'
p90
sa(dp91
g66
S'/Users/Brandon/Develop/ipo_web2py/applications/ipos/controllers/default.py'
p92
sg68
(dp93
sg74
I139
sg75
(dp94
I128
S'def call():'
p95
sI129
S'    """'
p96
sI130
S'    exposes services. for example:'
p97
sI131
S'    http://..../[app]/default/call/jsonrpc'
p98
sI132
S'    decorate with @services.jsonrpc the functions to expose'
p99
sI133
S'    supports xml, json, xmlrpc, jsonrpc, amfrpc, rss, csv'
p100
sI134
S'    """'
p101
sI135
S'    return service()'
p102
sI136
S''
sI137
S''
ssg87
S'()'
p103
sg89
S'<module>'
p104
sa(dp105
g66
S'/Users/Brandon/Develop/ipo_web2py/gluon/globals.py'
p106
sg68
(dp107
S'self'
p108
S'undefined'
p109
sS'f'
S'<function matcher>'
p110
ssg74
I417
sg75
(dp111
I416
S'        self._vars = None'
p112
sI417
S'        self._caller = lambda f: f()'
p113
sI418
S'        self._view_environment = None'
p114
sI419
S'        self._custom_commit = None'
p115
sI420
S'        self._custom_rollback = None'
p116
sI421
S"        self.generic_patterns = ['*']"
p117
sI412
S"        self.flash = ''            # used by the default view layout"
p118
sI413
S'        self.meta = Storage()      # used by web2py_ajax.html'
p119
sI414
S'        self.menu = []             # used by the default view layout'
p120
sI415
S'        self.files = []            # used by web2py_ajax.html'
p121
ssg87
S'(f=<function matcher>)'
p122
sg89
S'<lambda>'
p123
sa(dp124
g66
S'/Users/Brandon/Develop/ipo_web2py/applications/ipos/controllers/default.py'
p125
sg68
(dp126
S'ipos'
p127
g109
sS'global getIpos'
p128
S'<function getIpos>'
p129
ssg74
I40
sg75
(dp130
I35
S"        filepath = os.path.join(request.folder, 'uploads', 'keyWords.txt')"
p131
sI36
S"        with open(filepath, 'r') as text_input_file:"
p132
sI37
S'            text_input = text_input_file.read()'
p133
sI38
S''
sI39
S'    # time_to_expire = DateHandling.secondsUntilNextDay() #cache until next day - commenting out because of timezone issues'
p134
sI40
S'    ipos = getIpos()'
p135
sI41
S'    DateHandling.secondsUntilNextDay()'
p136
sI42
S'    companyData = getCompanyData(ipos)'
p137
sI43
S'    print companyData'
p138
sI44
S"    # companyData = cache.disk('companies', lambda: CompanyInformationFetcher(ipos).companies, time_expire=time_to_expire)"
p139
ssg87
S'()'
p140
sg89
S'matcher'
p141
sa(dp142
g66
S'/Users/Brandon/Develop/ipo_web2py/applications/ipos/controllers/default.py'
p143
sg68
(dp144
S'db.company_info.id'
p145
S'<pydal.objects.Field object>'
p146
sS').select'
p147
g109
sS'db.ipo_info'
p148
S'<Table ipo_info (id, company_id, data_source_id,...eek, intended_ticker, intended_exchange, broker)>'
p149
sS'db.ipo_info.company_id'
p150
S'<pydal.objects.Field object>'
p151
sS'db.company_info'
p152
S'<Table company_info (id, name, ticker, exchange, country, data_source_id)>'
p153
sS'global db'
p154
S'<DAL uri="mysql:******@localhost/IPOS">'
p155
ssg74
I54
sg75
(dp156
I49
S''
sI50
S'def getIpos():'
p157
sI51
S'    thisWeekRange = DateHandling.convertRangeToDateTimeExclusiveEndDate(DateHandling.getThisWeekRange())'
p158
sI52
S'    thisWeekIpoInfo = db(db.data_source.date_time >= thisWeekRange[0] and db.data_source.date_time < thisWeekRange[1]'
p159
sI53
S'        and DataSourceTypes.IPO.value in db.data_source.type and db.data_source.id == db.ipo_info.data_source_id and'
p160
sI54
S'        db.company_info.id == db.ipo_info.company_id).select()'
p161
sI55
S'    if thisWeekIpoInfo:'
p162
sI56
S'        print thisWeekIpoInfo'
p163
sI57
S'        return thisWeekIpoInfo'
p164
sI58
S'    else:'
p165
ssg87
S'()'
p166
sg89
S'getIpos'
p167
sa(dp168
g66
S'/Users/Brandon/Develop/ipo_web2py/gluon/packages/dal/pydal/objects.py'
p169
sg68
(dp170
S'self.query'
p171
S'<Query (company_info.id = ipo_info.company_id)>'
p172
sS'adapter.select'
p173
S'<bound method MySQLAdapter.select of <pydal.adapters.mysql.MySQLAdapter object>>'
p174
sS'fields'
p175
S'[<pydal.objects.Field object>, <pydal.objects.Field object>, <pydal.objects.Field object>, <pydal.objects.Field object>, <pydal.objects.Field object>, <pydal.objects.Field object>, <pydal.objects.Field object>, <pydal.objects.Field object>, <pydal.objects.Field object>, <pydal.objects.Field object>, <pydal.objects.Field object>, <pydal.objects.Field object>, <pydal.objects.Field object>, <pydal.objects.Field object>]'
p176
sS'adapter'
p177
S'<pydal.adapters.mysql.MySQLAdapter object>'
p178
sS'attributes'
p179
g21
sS'self'
p180
S'<Set (company_info.id = ipo_info.company_id)>'
p181
ssg74
I2020
sg75
(dp182
I2016
S"                                    attributes.get('left', None),"
p183
sI2017
S"                                    attributes.get('orderby', None),"
p184
sI2018
S"                                    attributes.get('groupby', None))"
p185
sI2019
S'        fields = adapter.expand_all(fields, tablenames)'
p186
sI2020
S'        return adapter.select(self.query, fields, attributes)'
p187
sI2021
S''
sI2022
S'    def iterselect(self, *fields, **attributes):'
p188
sI2023
S'        adapter = self.db._adapter'
p189
sI2024
S'        tablenames = adapter.tables(self.query,'
p190
sI2015
S"                                    attributes.get('join', None),"
p191
ssg87
S'(self=<Set (company_info.id = ipo_info.company_id)>, *fields=[<pydal.objects.Field object>, <pydal.objects.Field object>, <pydal.objects.Field object>, <pydal.objects.Field object>, <pydal.objects.Field object>, <pydal.objects.Field object>, <pydal.objects.Field object>, <pydal.objects.Field object>, <pydal.objects.Field object>, <pydal.objects.Field object>, <pydal.objects.Field object>, <pydal.objects.Field object>, <pydal.objects.Field object>, <pydal.objects.Field object>], **attributes={})'
p192
sg89
S'select'
p193
sa(dp194
g66
S'/Users/Brandon/Develop/ipo_web2py/gluon/packages/dal/pydal/adapters/base.py'
p195
sg68
(dp196
S'fields'
p197
S'[<pydal.objects.Field object>, <pydal.objects.Field object>, <pydal.objects.Field object>, <pydal.objects.Field object>, <pydal.objects.Field object>, <pydal.objects.Field object>, <pydal.objects.Field object>, <pydal.objects.Field object>, <pydal.objects.Field object>, <pydal.objects.Field object>, <pydal.objects.Field object>, <pydal.objects.Field object>, <pydal.objects.Field object>, <pydal.objects.Field object>]'
p198
sS'self'
p199
S'<pydal.adapters.mysql.MySQLAdapter object>'
p200
sS'attributes'
p201
g21
sS'self._select_aux'
p202
S'<bound method MySQLAdapter._select_aux of <pydal.adapters.mysql.MySQLAdapter object>>'
p203
sS'sql'
p204
S"'SELECT  company_info.id, company_info.name, comp...fo WHERE (company_info.id = ipo_info.company_id);'"
p205
ssg74
I1296
sg75
(dp206
I1291
S'            return cache_model('
p207
sI1292
S'                key,'
p208
sI1293
S'                lambda self=self,args=args:self._select_aux(*args),'
p209
sI1294
S'                time_expire)'
p210
sI1295
S'        else:'
p211
sI1296
S'            return self._select_aux(sql,fields,attributes)'
p212
sI1297
S''
sI1298
S'    def iterselect(self, query, fields, attributes):'
p213
sI1299
S'        sql = self._select(query, fields, attributes)'
p214
sI1300
S"        cacheable = attributes.get('cacheable', False)"
p215
ssg87
S'(self=<pydal.adapters.mysql.MySQLAdapter object>, query=<Query (company_info.id = ipo_info.company_id)>, fields=[<pydal.objects.Field object>, <pydal.objects.Field object>, <pydal.objects.Field object>, <pydal.objects.Field object>, <pydal.objects.Field object>, <pydal.objects.Field object>, <pydal.objects.Field object>, <pydal.objects.Field object>, <pydal.objects.Field object>, <pydal.objects.Field object>, <pydal.objects.Field object>, <pydal.objects.Field object>, <pydal.objects.Field object>, <pydal.objects.Field object>], attributes={})'
p216
sg89
g193
sa(dp217
g66
S'/Users/Brandon/Develop/ipo_web2py/gluon/packages/dal/pydal/adapters/base.py'
p218
sg68
(dp219
S'self'
p220
S'<pydal.adapters.mysql.MySQLAdapter object>'
p221
sS'self.execute'
p222
S'<bound method MySQLAdapter.execute of <pydal.adapters.mysql.MySQLAdapter object>>'
p223
sS'sql'
p224
S"'SELECT  company_info.id, company_info.name, comp...fo WHERE (company_info.id = ipo_info.company_id);'"
p225
ssg74
I1253
sg75
(dp226
I1248
S''
sI1249
S'    def _select_aux(self, sql, fields, attributes):'
p227
sI1250
S'        args_get = attributes.get'
p228
sI1251
S"        cache = args_get('cache',None)"
p229
sI1252
S'        if not cache:'
p230
sI1253
S'            self.execute(sql)'
p231
sI1254
S'            rows = self._fetchall()'
p232
sI1255
S'        else:'
p233
sI1256
S'            if isinstance(cache, dict):'
p234
sI1257
S"                cache_model = cache['model']"
p235
ssg87
S"(self=<pydal.adapters.mysql.MySQLAdapter object>, sql='SELECT  company_info.id, company_info.name, comp...fo WHERE (company_info.id = ipo_info.company_id);', fields=[<pydal.objects.Field object>, <pydal.objects.Field object>, <pydal.objects.Field object>, <pydal.objects.Field object>, <pydal.objects.Field object>, <pydal.objects.Field object>, <pydal.objects.Field object>, <pydal.objects.Field object>, <pydal.objects.Field object>, <pydal.objects.Field object>, <pydal.objects.Field object>, <pydal.objects.Field object>, <pydal.objects.Field object>, <pydal.objects.Field object>], attributes={})"
p236
sg89
S'_select_aux'
p237
sa(dp238
g66
S'/Users/Brandon/Develop/ipo_web2py/gluon/packages/dal/pydal/adapters/base.py'
p239
sg68
(dp240
S'a'
S"('SELECT  company_info.id, company_info.name, comp...fo WHERE (company_info.id = ipo_info.company_id);',)"
p241
sS'self'
p242
S'<pydal.adapters.mysql.MySQLAdapter object>'
p243
sS'b'
g21
sS'self.log_execute'
p244
S'<bound method MySQLAdapter.log_execute of <pydal.adapters.mysql.MySQLAdapter object>>'
p245
ssg74
I1388
sg75
(dp246
I1383
S'        self.db._timings.append((command,time.time()-t0))'
p247
sI1384
S'        del self.db._timings[:-TIMINGSSIZE]'
p248
sI1385
S'        return ret'
p249
sI1386
S''
sI1387
S'    def execute(self, *a, **b):'
p250
sI1388
S'        return self.log_execute(*a, **b)'
p251
sI1389
S''
sI1390
S'    def execute_test_query(self):'
p252
sI1391
S'        return self.execute(self.test_query)'
p253
sI1392
S''
ssg87
S"(self=<pydal.adapters.mysql.MySQLAdapter object>, *a=('SELECT  company_info.id, company_info.name, comp...fo WHERE (company_info.id = ipo_info.company_id);',), **b={})"
p254
sg89
S'execute'
p255
sa(dp256
g66
S'/Users/Brandon/Develop/ipo_web2py/gluon/packages/dal/pydal/adapters/base.py'
p257
sg68
(dp258
S'a'
S"('SELECT  company_info.id, company_info.name, comp...fo WHERE (company_info.id = ipo_info.company_id);',)"
p259
sS'b'
g21
sS'self'
p260
S'<pydal.adapters.mysql.MySQLAdapter object>'
p261
sS'ret'
p262
g109
sS'command'
p263
S"'SELECT  company_info.id, company_info.name, comp...fo WHERE (company_info.id = ipo_info.company_id);'"
p264
sS'self.get_cursor'
p265
S'<bound method MySQLAdapter.get_cursor of <pydal.adapters.mysql.MySQLAdapter object>>'
p266
sS').execute'
p267
g109
ssg74
I1382
sg75
(dp268
I1377
S'            command = self.filter_sql_command(command)'
p269
sI1378
S'        if self.db._debug:'
p270
sI1379
S"            self.db.logger.debug('SQL: %s' % command)"
p271
sI1380
S'        self.db._lastsql = command'
p272
sI1381
S'        t0 = time.time()'
p273
sI1382
S'        ret = self.get_cursor().execute(command, *a[1:], **b)'
p274
sI1383
S'        self.db._timings.append((command,time.time()-t0))'
p275
sI1384
S'        del self.db._timings[:-TIMINGSSIZE]'
p276
sI1385
S'        return ret'
p277
sI1386
S''
ssg87
S"(self=<pydal.adapters.mysql.MySQLAdapter object>, *a=('SELECT  company_info.id, company_info.name, comp...fo WHERE (company_info.id = ipo_info.company_id);',), **b={})"
p278
sg89
S'log_execute'
p279
sa(dp280
g66
S'/Users/Brandon/anaconda/lib/python2.7/site-packages/pymysql/cursors.py'
p281
sg68
(dp282
S'query'
p283
S"'SELECT  company_info.id, company_info.name, comp...fo WHERE (company_info.id = ipo_info.company_id);'"
p284
sS'self'
p285
S'<pymysql.cursors.Cursor object>'
p286
sS'result'
p287
g109
sS'self._query'
p288
S'<bound method Cursor._query of <pymysql.cursors.Cursor object>>'
p289
ssg74
I166
sg75
(dp290
I161
S'        while self.nextset():'
p291
sI162
S'            pass'
p292
sI163
S''
sI164
S'        query = self.mogrify(query, args)'
p293
sI165
S''
sI166
S'        result = self._query(query)'
p294
sI167
S'        self._executed = query'
p295
sI168
S'        return result'
p296
sI169
S''
sI170
S'    def executemany(self, query, args):'
p297
ssg87
S"(self=<pymysql.cursors.Cursor object>, query='SELECT  company_info.id, company_info.name, comp...fo WHERE (company_info.id = ipo_info.company_id);', args=None)"
p298
sg89
g255
sa(dp299
g66
S'/Users/Brandon/anaconda/lib/python2.7/site-packages/pymysql/cursors.py'
p300
sg68
(dp301
S'q'
S"'SELECT  company_info.id, company_info.name, comp...fo WHERE (company_info.id = ipo_info.company_id);'"
p302
sS'conn.query'
p303
S'<bound method Connection.query of <pymysql.connections.Connection object>>'
p304
sS'conn'
p305
S'<pymysql.connections.Connection object>'
p306
ssg74
I322
sg75
(dp307
I320
S'        conn = self._get_db()'
p308
sI321
S'        self._last_executed = q'
p309
sI322
S'        conn.query(q)'
p310
sI323
S'        self._do_get_result()'
p311
sI324
S'        return self.rowcount'
p312
sI325
S''
sI326
S'    def _do_get_result(self):'
p313
sI317
S'        self.rownumber = r'
p314
sI318
S''
sI319
S'    def _query(self, q):'
p315
ssg87
S"(self=<pymysql.cursors.Cursor object>, q='SELECT  company_info.id, company_info.name, comp...fo WHERE (company_info.id = ipo_info.company_id);')"
p316
sg89
S'_query'
p317
sa(dp318
g66
S'/Users/Brandon/anaconda/lib/python2.7/site-packages/pymysql/connections.py'
p319
sg68
(dp320
S'self._read_query_result'
p321
S'<bound method Connection._read_query_result of <pymysql.connections.Connection object>>'
p322
sS'self'
p323
S'<pymysql.connections.Connection object>'
p324
sS'unbuffered'
p325
S'False'
p326
sS'self._affected_rows'
p327
S'0'
ssg74
I856
sg75
(dp328
I851
S'            if PY2:'
p329
sI852
S'                sql = sql.encode(self.encoding)'
p330
sI853
S'            else:'
p331
sI854
S"                sql = sql.encode(self.encoding, 'surrogateescape')"
p332
sI855
S'        self._execute_command(COMMAND.COM_QUERY, sql)'
p333
sI856
S'        self._affected_rows = self._read_query_result(unbuffered=unbuffered)'
p334
sI857
S'        return self._affected_rows'
p335
sI858
S''
sI859
S'    def next_result(self, unbuffered=False):'
p336
sI860
S'        self._affected_rows = self._read_query_result(unbuffered=unbuffered)'
p337
ssg87
S"(self=<pymysql.connections.Connection object>, sql='SELECT  company_info.id, company_info.name, comp...fo WHERE (company_info.id = ipo_info.company_id);', unbuffered=False)"
p338
sg89
S'query'
p339
sa(dp340
g66
S'/Users/Brandon/anaconda/lib/python2.7/site-packages/pymysql/connections.py'
p341
sg68
(dp342
S'result.read'
p343
S'<bound method MySQLResult.read of <pymysql.connections.MySQLResult object>>'
p344
sS'result'
p345
S'<pymysql.connections.MySQLResult object>'
p346
ssg74
I1057
sg75
(dp347
I1056
S'            result = MySQLResult(self)'
p348
sI1057
S'            result.read()'
p349
sI1058
S'        self._result = result'
p350
sI1059
S'        if result.server_status is not None:'
p351
sI1060
S'            self.server_status = result.server_status'
p352
sI1061
S'        return result.affected_rows'
p353
sI1052
S'                result.unbuffered_active = False'
p354
sI1053
S'                result.connection = None'
p355
sI1054
S'                raise'
p356
sI1055
S'        else:'
p357
ssg87
S'(self=<pymysql.connections.Connection object>, unbuffered=False)'
p358
sg89
S'_read_query_result'
p359
sa(dp360
g66
S'/Users/Brandon/anaconda/lib/python2.7/site-packages/pymysql/connections.py'
p361
sg68
(dp362
S'first_packet'
p363
g109
sS'self'
p364
S'<pymysql.connections.MySQLResult object>'
p365
sS'self.connection'
p366
S'None'
p367
sS'self.connection._read_packet'
p368
g109
ssg74
I1340
sg75
(dp369
I1344
S'            elif first_packet.is_load_local_packet():'
p370
sI1335
S'        if self.unbuffered_active:'
p371
sI1336
S'            self._finish_unbuffered_query()'
p372
sI1337
S''
sI1338
S'    def read(self):'
p373
sI1339
S'        try:'
p374
sI1340
S'            first_packet = self.connection._read_packet()'
p375
sI1341
S''
sI1342
S'            if first_packet.is_ok_packet():'
p376
sI1343
S'                self._read_ok_packet(first_packet)'
p377
ssg87
S'(self=<pymysql.connections.MySQLResult object>)'
p378
sg89
S'read'
p379
sa(dp380
g66
S'/Users/Brandon/anaconda/lib/python2.7/site-packages/pymysql/connections.py'
p381
sg68
(dp382
S'packet'
p383
S'<pymysql.connections.MysqlPacket object>'
p384
sS'packet.check_error'
p385
S'<bound method MysqlPacket.check_error of <pymysql.connections.MysqlPacket object>>'
p386
ssg74
I1014
sg75
(dp387
I1009
S'                continue'
p388
sI1010
S'            if bytes_to_read < MAX_PACKET_LEN:'
p389
sI1011
S'                break'
p390
sI1012
S''
sI1013
S'        packet = packet_type(buff, self.encoding)'
p391
sI1014
S'        packet.check_error()'
p392
sI1015
S'        return packet'
p393
sI1016
S''
sI1017
S'    def _read_bytes(self, num_bytes):'
p394
sI1018
S'        self._sock.settimeout(self._read_timeout)'
p395
ssg87
S"(self=<pymysql.connections.Connection object>, packet_type=<class 'pymysql.connections.MysqlPacket'>)"
p396
sg89
S'_read_packet'
p397
sa(dp398
g66
S'/Users/Brandon/anaconda/lib/python2.7/site-packages/pymysql/connections.py'
p399
sg68
(dp400
S'self._data'
p401
S'"\\xffz\\x04#42S02Table \'ipos.company_info\' doesn\'t exist"'
p402
sS'self'
p403
S'<pymysql.connections.MysqlPacket object>'
p404
sS'global err'
p405
S"<module 'pymysql.err' from '/Users/Brandon/anaconda/lib/python2.7/site-packages/pymysql/err.pyc'>"
p406
sS'err.raise_mysql_exception'
p407
S'<function raise_mysql_exception>'
p408
ssg74
I393
sg75
(dp409
I388
S'        if self.is_error_packet():'
p410
sI389
S'            self.rewind()'
p411
sI390
S'            self.advance(1)  # field_count == error (we already know that)'
p412
sI391
S'            errno = self.read_uint16()'
p413
sI392
S'            if DEBUG: print("errno =", errno)'
p414
sI393
S'            err.raise_mysql_exception(self._data)'
p415
sI394
S''
sI395
S'    def dump(self):'
p416
sI396
S'        dump_packet(self._data)'
p417
sI397
S''
ssg87
S'(self=<pymysql.connections.MysqlPacket object>)'
p418
sg89
S'check_error'
p419
sa(dp420
g66
S'/Users/Brandon/anaconda/lib/python2.7/site-packages/pymysql/err.py'
p421
sg68
(dp422
S'errorclass'
p423
S"<class 'pymysql.err.ProgrammingError'>"
p424
sS'errno'
p425
S'1146'
p426
sS'errval'
p427
S'u"Table \'ipos.company_info\' doesn\'t exist"'
p428
ssg74
I107
sg75
(dp429
I98
S'def raise_mysql_exception(data):'
p430
sI99
S"    errno = struct.unpack('<h', data[1:3])[0]"
p431
sI100
S'    is_41 = data[3:4] == b"#"'
p432
sI101
S'    if is_41:'
p433
sI102
S'        # client protocol 4.1'
p434
sI103
S"        errval = data[9:].decode('utf-8', 'replace')"
p435
sI104
S'    else:'
p436
sI105
S"        errval = data[3:].decode('utf-8', 'replace')"
p437
sI106
S'    errorclass = error_map.get(errno, InternalError)'
p438
sI107
S'    raise errorclass(errno, errval)'
p439
ssg87
S'(data="\\xffz\\x04#42S02Table \'ipos.company_info\' doesn\'t exist")'
p440
sg89
S'raise_mysql_exception'
p441
sasS'pyver'
p442
S'Python 2.7.10: /Users/Brandon/anaconda/bin/python (prefix: /Users/Brandon/anaconda)'
p443
sS'session'
p444
g61
(S's\x1a\x00\x00\x00<div><table></table></div>'
tRp445
sS'etype'
p446
S"<class 'pymysql.err.ProgrammingError'>"
p447
sS'date'
p448
S'Sun May  7 12:18:34 2017'
p449
sS'response'
p450
g61
(S's\x7f=\x00\x00<div><table><tr><td style="font-weight:bold;vertical-align:top;">body</td><td style="vertical-align:top;">:</td><td><div>&lt;cStringIO.StringO object at 0x10f3f7570&gt;</div></td></tr><tr><td style="font-weight:bold;vertical-align:top;">cookies</td><td style="vertical-align:top;">:</td><td><div><table><tr><td style="font-weight:bold;vertical-align:top;">session_id_ipos</td><td style="vertical-align:top;">:</td><td><div>127.0.0.1-524f695f-03a9-40fa-ae82-5b3313b5a86f<table><tr><td style="font-weight:bold;vertical-align:top;">comment</td><td style="vertical-align:top;">:</td><td><div></div></td></tr><tr><td style="font-weight:bold;vertical-align:top;">domain</td><td style="vertical-align:top;">:</td><td><div></div></td></tr><tr><td style="font-weight:bold;vertical-align:top;">expires</td><td style="vertical-align:top;">:</td><td><div></div></td></tr><tr><td style="font-weight:bold;vertical-align:top;">httponly</td><td style="vertical-align:top;">:</td><td><div></div></td></tr><tr><td style="font-weight:bold;vertical-align:top;">max-age</td><td style="vertical-align:top;">:</td><td><div></div></td></tr><tr><td style="font-weight:bold;vertical-align:top;">path</td><td style="vertical-align:top;">:</td><td><div>/</div></td></tr><tr><td style="font-weight:bold;vertical-align:top;">secure</td><td style="vertical-align:top;">:</td><td><div></div></td></tr><tr><td style="font-weight:bold;vertical-align:top;">version</td><td style="vertical-align:top;">:</td><td><div></div></td></tr></table></div></td></tr></table></div></td></tr><tr><td style="font-weight:bold;vertical-align:top;">delimiters</td><td style="vertical-align:top;">:</td><td><div><table><tr><td><div>{{</div></td></tr><tr><td><div>}}</div></td></tr></table></div></td></tr><tr><td style="font-weight:bold;vertical-align:top;">files</td><td style="vertical-align:top;">:</td><td><div><table></table></div></td></tr><tr><td style="font-weight:bold;vertical-align:top;">flash</td><td style="vertical-align:top;">:</td><td><div></div></td></tr><tr><td style="font-weight:bold;vertical-align:top;">form_label_separator</td><td style="vertical-align:top;">:</td><td><div>: </div></td></tr><tr><td style="font-weight:bold;vertical-align:top;">formstyle</td><td style="vertical-align:top;">:</td><td><div>table3cols</div></td></tr><tr><td style="font-weight:bold;vertical-align:top;">generic_patterns</td><td style="vertical-align:top;">:</td><td><div><table><tr><td><div>*</div></td></tr></table></div></td></tr><tr><td style="font-weight:bold;vertical-align:top;">google_analytics_id</td><td style="vertical-align:top;">:</td><td><div>None</div></td></tr><tr><td style="font-weight:bold;vertical-align:top;">headers</td><td style="vertical-align:top;">:</td><td><div><table><tr><td style="font-weight:bold;vertical-align:top;">X-Powered-By</td><td style="vertical-align:top;">:</td><td><div>web2py</div></td></tr></table></div></td></tr><tr><td style="font-weight:bold;vertical-align:top;">logo</td><td style="vertical-align:top;">:</td><td><div><a class="navbar-brand" href="http://www.web2py.com/" id="web2py-logo"><b>web<span>2</span>py</b>&trade;&nbsp;</a></div></td></tr><tr><td style="font-weight:bold;vertical-align:top;">menu</td><td style="vertical-align:top;">:</td><td><div><table><tr><td><div><table><tr><td><div>Home</div></td></tr><tr><td><div>False</div></td></tr><tr><td><div>/</div></td></tr><tr><td><div><table></table></div></td></tr></table></div></td></tr><tr><td><div><table><tr><td><div>My Sites</div></td></tr><tr><td><div>False</div></td></tr><tr><td><div>/admin/site</div></td></tr></table></div></td></tr><tr><td><div><table><tr><td><div>This App</div></td></tr><tr><td><div>False</div></td></tr><tr><td><div>#</div></td></tr><tr><td><div><table><tr><td><div><table><tr><td><div>Design</div></td></tr><tr><td><div>False</div></td></tr><tr><td><div>/admin/design/ipos</div></td></tr></table></div></td></tr><tr><td><div><li class="divider"></li></div></td></tr><tr><td><div><table><tr><td><div>Controller</div></td></tr><tr><td><div>False</div></td></tr><tr><td><div>/admin/edit/ipos/controllers/default.py</div></td></tr></table></div></td></tr><tr><td><div><table><tr><td><div>View</div></td></tr><tr><td><div>False</div></td></tr><tr><td><div>/admin/edit/ipos/views/default/matcher.html</div></td></tr></table></div></td></tr><tr><td><div><table><tr><td><div>DB Model</div></td></tr><tr><td><div>False</div></td></tr><tr><td><div>/admin/edit/ipos/models/db.py</div></td></tr></table></div></td></tr><tr><td><div><table><tr><td><div>Menu Model</div></td></tr><tr><td><div>False</div></td></tr><tr><td><div>/admin/edit/ipos/models/menu.py</div></td></tr></table></div></td></tr><tr><td><div><table><tr><td><div>Config.ini</div></td></tr><tr><td><div>False</div></td></tr><tr><td><div>/admin/edit/ipos/private/appconfig.ini</div></td></tr></table></div></td></tr><tr><td><div><table><tr><td><div>Layout</div></td></tr><tr><td><div>False</div></td></tr><tr><td><div>/admin/edit/ipos/views/layout.html</div></td></tr></table></div></td></tr><tr><td><div><table><tr><td><div>Stylesheet</div></td></tr><tr><td><div>False</div></td></tr><tr><td><div>/admin/edit/ipos/static/css/web2py-bootstrap3.css</div></td></tr></table></div></td></tr><tr><td><div><table><tr><td><div>Database</div></td></tr><tr><td><div>False</div></td></tr><tr><td><div>/appadmin</div></td></tr></table></div></td></tr><tr><td><div><table><tr><td><div>Errors</div></td></tr><tr><td><div>False</div></td></tr><tr><td><div>/admin/errors/ipos</div></td></tr></table></div></td></tr><tr><td><div><table><tr><td><div>About</div></td></tr><tr><td><div>False</div></td></tr><tr><td><div>/admin/about/ipos</div></td></tr></table></div></td></tr></table></div></td></tr></table></div></td></tr><tr><td><div><table><tr><td><div>web2py.com</div></td></tr><tr><td><div>False</div></td></tr><tr><td><div>#</div></td></tr><tr><td><div><table><tr><td><div><table><tr><td><div>Download</div></td></tr><tr><td><div>False</div></td></tr><tr><td><div>http://www.web2py.com/examples/default/download</div></td></tr></table></div></td></tr><tr><td><div><table><tr><td><div>Support</div></td></tr><tr><td><div>False</div></td></tr><tr><td><div>http://www.web2py.com/examples/default/support</div></td></tr></table></div></td></tr><tr><td><div><table><tr><td><div>Demo</div></td></tr><tr><td><div>False</div></td></tr><tr><td><div>http://web2py.com/demo_admin</div></td></tr></table></div></td></tr><tr><td><div><table><tr><td><div>Quick Examples</div></td></tr><tr><td><div>False</div></td></tr><tr><td><div>http://web2py.com/examples/default/examples</div></td></tr></table></div></td></tr><tr><td><div><table><tr><td><div>FAQ</div></td></tr><tr><td><div>False</div></td></tr><tr><td><div>http://web2py.com/AlterEgo</div></td></tr></table></div></td></tr><tr><td><div><table><tr><td><div>Videos</div></td></tr><tr><td><div>False</div></td></tr><tr><td><div>http://www.web2py.com/examples/default/videos/</div></td></tr></table></div></td></tr><tr><td><div><table><tr><td><div>Free Applications</div></td></tr><tr><td><div>False</div></td></tr><tr><td><div>http://web2py.com/appliances</div></td></tr></table></div></td></tr><tr><td><div><table><tr><td><div>Plugins</div></td></tr><tr><td><div>False</div></td></tr><tr><td><div>http://web2py.com/plugins</div></td></tr></table></div></td></tr><tr><td><div><table><tr><td><div>Recipes</div></td></tr><tr><td><div>False</div></td></tr><tr><td><div>http://web2pyslices.com/</div></td></tr></table></div></td></tr></table></div></td></tr></table></div></td></tr><tr><td><div><table><tr><td><div>Documentation</div></td></tr><tr><td><div>False</div></td></tr><tr><td><div>#</div></td></tr><tr><td><div><table><tr><td><div><table><tr><td><div>Online book</div></td></tr><tr><td><div>False</div></td></tr><tr><td><div>http://www.web2py.com/book</div></td></tr></table></div></td></tr><tr><td><div><li class="divider"></li></div></td></tr><tr><td><div><table><tr><td><div>Preface</div></td></tr><tr><td><div>False</div></td></tr><tr><td><div>http://www.web2py.com/book/default/chapter/00</div></td></tr></table></div></td></tr><tr><td><div><table><tr><td><div>Introduction</div></td></tr><tr><td><div>False</div></td></tr><tr><td><div>http://www.web2py.com/book/default/chapter/01</div></td></tr></table></div></td></tr><tr><td><div><table><tr><td><div>Python</div></td></tr><tr><td><div>False</div></td></tr><tr><td><div>http://www.web2py.com/book/default/chapter/02</div></td></tr></table></div></td></tr><tr><td><div><table><tr><td><div>Overview</div></td></tr><tr><td><div>False</div></td></tr><tr><td><div>http://www.web2py.com/book/default/chapter/03</div></td></tr></table></div></td></tr><tr><td><div><table><tr><td><div>The Core</div></td></tr><tr><td><div>False</div></td></tr><tr><td><div>http://www.web2py.com/book/default/chapter/04</div></td></tr></table></div></td></tr><tr><td><div><table><tr><td><div>The Views</div></td></tr><tr><td><div>False</div></td></tr><tr><td><div>http://www.web2py.com/book/default/chapter/05</div></td></tr></table></div></td></tr><tr><td><div><table><tr><td><div>Database</div></td></tr><tr><td><div>False</div></td></tr><tr><td><div>http://www.web2py.com/book/default/chapter/06</div></td></tr></table></div></td></tr><tr><td><div><table><tr><td><div>Forms and Validators</div></td></tr><tr><td><div>False</div></td></tr><tr><td><div>http://www.web2py.com/book/default/chapter/07</div></td></tr></table></div></td></tr><tr><td><div><table><tr><td><div>Email and SMS</div></td></tr><tr><td><div>False</div></td></tr><tr><td><div>http://www.web2py.com/book/default/chapter/08</div></td></tr></table></div></td></tr><tr><td><div><table><tr><td><div>Access Control</div></td></tr><tr><td><div>False</div></td></tr><tr><td><div>http://www.web2py.com/book/default/chapter/09</div></td></tr></table></div></td></tr><tr><td><div><table><tr><td><div>Services</div></td></tr><tr><td><div>False</div></td></tr><tr><td><div>http://www.web2py.com/book/default/chapter/10</div></td></tr></table></div></td></tr><tr><td><div><table><tr><td><div>Ajax Recipes</div></td></tr><tr><td><div>False</div></td></tr><tr><td><div>http://www.web2py.com/book/default/chapter/11</div></td></tr></table></div></td></tr><tr><td><div><table><tr><td><div>Components and Plugins</div></td></tr><tr><td><div>False</div></td></tr><tr><td><div>http://www.web2py.com/book/default/chapter/12</div></td></tr></table></div></td></tr><tr><td><div><table><tr><td><div>Deployment Recipes</div></td></tr><tr><td><div>False</div></td></tr><tr><td><div>http://www.web2py.com/book/default/chapter/13</div></td></tr></table></div></td></tr><tr><td><div><table><tr><td><div>Other Recipes</div></td></tr><tr><td><div>False</div></td></tr><tr><td><div>http://www.web2py.com/book/default/chapter/14</div></td></tr></table></div></td></tr><tr><td><div><table><tr><td><div>Helping web2py</div></td></tr><tr><td><div>False</div></td></tr><tr><td><div>http://www.web2py.com/book/default/chapter/15</div></td></tr></table></div></td></tr><tr><td><div><table><tr><td><div>Buy web2py\'s book</div></td></tr><tr><td><div>False</div></td></tr><tr><td><div>http://stores.lulu.com/web2py</div></td></tr></table></div></td></tr></table></div></td></tr></table></div></td></tr><tr><td><div><table><tr><td><div>Community</div></td></tr><tr><td><div>False</div></td></tr><tr><td><div>None</div></td></tr><tr><td><div><table><tr><td><div><table><tr><td><div>Groups</div></td></tr><tr><td><div>False</div></td></tr><tr><td><div>http://www.web2py.com/examples/default/usergroups</div></td></tr></table></div></td></tr><tr><td><div><table><tr><td><div>Twitter</div></td></tr><tr><td><div>False</div></td></tr><tr><td><div>http://twitter.com/web2py</div></td></tr></table></div></td></tr><tr><td><div><table><tr><td><div>Live Chat</div></td></tr><tr><td><div>False</div></td></tr><tr><td><div>http://webchat.freenode.net/?channels=web2py</div></td></tr></table></div></td></tr></table></div></td></tr></table></div></td></tr></table></div></td></tr><tr><td style="font-weight:bold;vertical-align:top;">meta</td><td style="vertical-align:top;">:</td><td><div><table><tr><td style="font-weight:bold;vertical-align:top;">author</td><td style="vertical-align:top;">:</td><td><div>Your Name &lt;you@example.com&gt;</div></td></tr><tr><td style="font-weight:bold;vertical-align:top;">description</td><td style="vertical-align:top;">:</td><td><div>a cool new app</div></td></tr><tr><td style="font-weight:bold;vertical-align:top;">generator</td><td style="vertical-align:top;">:</td><td><div>Web2py Web Framework</div></td></tr><tr><td style="font-weight:bold;vertical-align:top;">keywords</td><td style="vertical-align:top;">:</td><td><div><table><tr><td><div>web2py</div></td></tr><tr><td><div>python</div></td></tr><tr><td><div>framework</div></td></tr></table></div></td></tr></table></div></td></tr><tr><td style="font-weight:bold;vertical-align:top;">models_to_run</td><td style="vertical-align:top;">:</td><td><div><table><tr><td><div>^\\w+\\.py$</div></td></tr><tr><td><div>^default/\\w+\\.py$</div></td></tr><tr><td><div>^default/matcher/\\w+\\.py$</div></td></tr></table></div></td></tr><tr><td style="font-weight:bold;vertical-align:top;">postprocessing</td><td style="vertical-align:top;">:</td><td><div><table></table></div></td></tr><tr><td style="font-weight:bold;vertical-align:top;">session_client</td><td style="vertical-align:top;">:</td><td><div>127.0.0.1</div></td></tr><tr><td style="font-weight:bold;vertical-align:top;">session_cookie_compression_level</td><td style="vertical-align:top;">:</td><td><div>None</div></td></tr><tr><td style="font-weight:bold;vertical-align:top;">session_cookie_expires</td><td style="vertical-align:top;">:</td><td><div>None</div></td></tr><tr><td style="font-weight:bold;vertical-align:top;">session_data_name</td><td style="vertical-align:top;">:</td><td><div>session_data_ipos</div></td></tr><tr><td style="font-weight:bold;vertical-align:top;">session_file</td><td style="vertical-align:top;">:</td><td><div>None</div></td></tr><tr><td style="font-weight:bold;vertical-align:top;">session_filename</td><td style="vertical-align:top;">:</td><td><div>/Users/Brandon/Develop/ipo_web2py/applications/ipos/sessions/127.0.0.1-524f695f-03a9-40fa-ae82-5b3313b5a86f</div></td></tr><tr><td style="font-weight:bold;vertical-align:top;">session_hash</td><td style="vertical-align:top;">:</td><td><div>c0762cbf4baf7f9af97c051e7fcb8083</div></td></tr><tr><td style="font-weight:bold;vertical-align:top;">session_id</td><td style="vertical-align:top;">:</td><td><div>127.0.0.1-524f695f-03a9-40fa-ae82-5b3313b5a86f</div></td></tr><tr><td style="font-weight:bold;vertical-align:top;">session_id_name</td><td style="vertical-align:top;">:</td><td><div>session_id_ipos</div></td></tr><tr><td style="font-weight:bold;vertical-align:top;">session_masterapp</td><td style="vertical-align:top;">:</td><td><div>ipos</div></td></tr><tr><td style="font-weight:bold;vertical-align:top;">session_new</td><td style="vertical-align:top;">:</td><td><div>True</div></td></tr><tr><td style="font-weight:bold;vertical-align:top;">session_storage_type</td><td style="vertical-align:top;">:</td><td><div>file</div></td></tr><tr><td style="font-weight:bold;vertical-align:top;">status</td><td style="vertical-align:top;">:</td><td><div>200</div></td></tr><tr><td style="font-weight:bold;vertical-align:top;">subtitle</td><td style="vertical-align:top;">:</td><td><div></div></td></tr><tr><td style="font-weight:bold;vertical-align:top;">title</td><td style="vertical-align:top;">:</td><td><div>Ipos</div></td></tr><tr><td style="font-weight:bold;vertical-align:top;">view</td><td style="vertical-align:top;">:</td><td><div>default/matcher.html</div></td></tr></table></div>'
tRp451
sS'locals'
p452
(dp453
S'errorclass'
p454
S"<class 'pymysql.err.ProgrammingError'>"
p455
sS'errno'
p456
S'1146'
p457
sS'is_41'
p458
S'True'
p459
sS'errval'
p460
S'u"Table \'ipos.company_info\' doesn\'t exist"'
p461
sS'data'
p462
S'"\\xffz\\x04#42S02Table \'ipos.company_info\' doesn\'t exist"'
p463
sssS'traceback'
p464
S'Traceback (most recent call last):\n  File "/Users/Brandon/Develop/ipo_web2py/gluon/restricted.py", line 227, in restricted\n    exec ccode in environment\n  File "/Users/Brandon/Develop/ipo_web2py/applications/ipos/controllers/default.py", line 139, in <module>\n  File "/Users/Brandon/Develop/ipo_web2py/gluon/globals.py", line 417, in <lambda>\n    self._caller = lambda f: f()\n  File "/Users/Brandon/Develop/ipo_web2py/applications/ipos/controllers/default.py", line 40, in matcher\n    ipos = getIpos()\n  File "/Users/Brandon/Develop/ipo_web2py/applications/ipos/controllers/default.py", line 54, in getIpos\n    db.company_info.id == db.ipo_info.company_id).select()\n  File "/Users/Brandon/Develop/ipo_web2py/gluon/packages/dal/pydal/objects.py", line 2020, in select\n    return adapter.select(self.query, fields, attributes)\n  File "/Users/Brandon/Develop/ipo_web2py/gluon/packages/dal/pydal/adapters/base.py", line 1296, in select\n    return self._select_aux(sql,fields,attributes)\n  File "/Users/Brandon/Develop/ipo_web2py/gluon/packages/dal/pydal/adapters/base.py", line 1253, in _select_aux\n    self.execute(sql)\n  File "/Users/Brandon/Develop/ipo_web2py/gluon/packages/dal/pydal/adapters/base.py", line 1388, in execute\n    return self.log_execute(*a, **b)\n  File "/Users/Brandon/Develop/ipo_web2py/gluon/packages/dal/pydal/adapters/base.py", line 1382, in log_execute\n    ret = self.get_cursor().execute(command, *a[1:], **b)\n  File "/Users/Brandon/anaconda/lib/python2.7/site-packages/pymysql/cursors.py", line 166, in execute\n    result = self._query(query)\n  File "/Users/Brandon/anaconda/lib/python2.7/site-packages/pymysql/cursors.py", line 322, in _query\n    conn.query(q)\n  File "/Users/Brandon/anaconda/lib/python2.7/site-packages/pymysql/connections.py", line 856, in query\n    self._affected_rows = self._read_query_result(unbuffered=unbuffered)\n  File "/Users/Brandon/anaconda/lib/python2.7/site-packages/pymysql/connections.py", line 1057, in _read_query_result\n    result.read()\n  File "/Users/Brandon/anaconda/lib/python2.7/site-packages/pymysql/connections.py", line 1340, in read\n    first_packet = self.connection._read_packet()\n  File "/Users/Brandon/anaconda/lib/python2.7/site-packages/pymysql/connections.py", line 1014, in _read_packet\n    packet.check_error()\n  File "/Users/Brandon/anaconda/lib/python2.7/site-packages/pymysql/connections.py", line 393, in check_error\n    err.raise_mysql_exception(self._data)\n  File "/Users/Brandon/anaconda/lib/python2.7/site-packages/pymysql/err.py", line 107, in raise_mysql_exception\n    raise errorclass(errno, errval)\nProgrammingError: (1146, u"Table \'ipos.company_info\' doesn\'t exist")\n'
p465
s.