(dp1
S'output'
p2
S'<class \'pymysql.err.InternalError\'> (1050, u"Table \'data_source\' already exists")'
p3
sS'layer'
p4
S'/Users/Brandon/Develop/ipo_web2py/applications/ipos/controllers/default.py'
p5
sS'code'
p6
S'# -*- coding: utf-8 -*-\n# this file is released under public domain and you can use without limitations\n\n# -------------------------------------------------------------------------\n# This is a sample controller\n# - index is the default action of any application\n# - user is required for authentication and authorization\n# - download is for downloading files uploaded in the db (does streaming)\n# -------------------------------------------------------------------------\n\nfrom IpoFetcher import IpoFetcher\nfrom CompanyInformationFetcher import CompanyInformationFetcher\nfrom DataMatcher import DataMatcher\n\nimport json\nimport os\n\nno_input_text = "123__NO_INPUT_TEXT__123"\n\ndef index():\n    redirect(URL(\'matcher\'))\n\ndef matcher():\n    text_input = None\n\n    match_all=False\n    if request.vars.has_key(\'match_all\') and request.vars[\'match_all\'] == "true":\n        match_all = True\n\n    if request.vars.has_key(\'keyWords\') and request.vars[\'keyWords\']:\n        text_input = request.vars[\'keyWords\']\n    else:\n        filepath = os.path.join(request.folder, \'uploads\', \'keyWords.txt\')\n        with open(filepath, \'r\') as text_input_file:\n            text_input = text_input_file.read()\n\n    time_to_expire = 60*60*24 #cache daily\n    ipos = cache.disk(\'ipos\', lambda: IpoFetcher().ipos, time_expire=time_to_expire)    \n    companyData = cache.disk(\'companies\', lambda: CompanyInformationFetcher(ipos).companies, time_expire=time_to_expire)    \n    matches = DataMatcher(text_input,match_all,companyData).matches\n\n    groups=[("This Week", "this_week"),("Next Week","next_week"),("Future","future")]\n    return dict(message=T(\'IPO Matcher\'),matches=matches,groups=groups,text_area_input=text_input)\n\ndef submit_keyword_input():\n    variables={}\n    if request.vars.post_form == "submit":\n        variables[\'keyWords\'] = request.vars.text_input\n    elif request.vars.post_form =="match_all":\n        variables[\'match_all\'] = "true"\n    redirect(URL(\'matcher\',vars=variables))\n\n\n\ndef add_company():\n    form=SQLFORM(db.company_info).process()\n    if form.accepts(request,session):\n        response.flash = \'form accepted\'\n    elif form.errors:\n        response.flash = \'form has errors\'\n    else:\n        response.flash = \'please fill the form\'\n    return dict(form=form)\n\n\n\n@cache.action()\ndef download():\n    """\n    allows downloading of uploaded files\n    http://..../[app]/default/download/[filename]\n    """\n    return response.download(request, db)\n\n\ndef call():\n    """\n    exposes services. for example:\n    http://..../[app]/default/call/jsonrpc\n    decorate with @services.jsonrpc the functions to expose\n    supports xml, json, xmlrpc, jsonrpc, amfrpc, rss, csv\n    """\n    return service()\n\n\n\nresponse._vars=response._caller(add_company)\n'
p7
sS'snapshot'
p8
(dp9
S'exception'
p10
(dp11
S'__module__'
p12
S"'pymysql.err'"
p13
sS'__getslice__'
p14
S"<method-wrapper '__getslice__' of InternalError object>"
p15
sS'__str__'
p16
S"<method-wrapper '__str__' of InternalError object>"
p17
sS'__reduce__'
p18
S'<built-in method __reduce__ of InternalError object>'
p19
sS'__dict__'
p20
S'{}'
p21
sS'__sizeof__'
p22
S'<built-in method __sizeof__ of InternalError object>'
p23
sS'__weakref__'
p24
S'None'
p25
sS'__init__'
p26
S"<method-wrapper '__init__' of InternalError object>"
p27
sS'__setattr__'
p28
S"<method-wrapper '__setattr__' of InternalError object>"
p29
sS'__reduce_ex__'
p30
S'<built-in method __reduce_ex__ of InternalError object>'
p31
sS'__new__'
p32
S'<built-in method __new__ of type object>'
p33
sS'__format__'
p34
S'<built-in method __format__ of InternalError object>'
p35
sS'__class__'
p36
S"<class 'pymysql.err.InternalError'>"
p37
sS'__doc__'
p38
S"'Exception raised when the database encounters an...anymore, the transaction is\\n    out of sync, etc.'"
p39
sS'__getitem__'
p40
S"<method-wrapper '__getitem__' of InternalError object>"
p41
sS'__setstate__'
p42
S'<built-in method __setstate__ of InternalError object>'
p43
sS'__getattribute__'
p44
S"<method-wrapper '__getattribute__' of InternalError object>"
p45
sS'args'
p46
S'(1050, u"Table \'data_source\' already exists")'
p47
sS'__subclasshook__'
p48
S'<built-in method __subclasshook__ of type object>'
p49
sS'__unicode__'
p50
S'<built-in method __unicode__ of InternalError object>'
p51
sS'__delattr__'
p52
S"<method-wrapper '__delattr__' of InternalError object>"
p53
sS'__repr__'
p54
S"<method-wrapper '__repr__' of InternalError object>"
p55
sS'__hash__'
p56
S"<method-wrapper '__hash__' of InternalError object>"
p57
ssS'evalue'
p58
S'(1050, u"Table \'data_source\' already exists")'
p59
sS'request'
p60
cgluon.html
XML_unpickle
p61
(S's\x10`\x00\x00<div><table><tr><td style="font-weight:bold;vertical-align:top;">ajax</td><td style="vertical-align:top;">:</td><td><div>False</div></td></tr><tr><td style="font-weight:bold;vertical-align:top;">application</td><td style="vertical-align:top;">:</td><td><div>ipos</div></td></tr><tr><td style="font-weight:bold;vertical-align:top;">args</td><td style="vertical-align:top;">:</td><td><div><table></table></div></td></tr><tr><td style="font-weight:bold;vertical-align:top;">cid</td><td style="vertical-align:top;">:</td><td><div>None</div></td></tr><tr><td style="font-weight:bold;vertical-align:top;">client</td><td style="vertical-align:top;">:</td><td><div>127.0.0.1</div></td></tr><tr><td style="font-weight:bold;vertical-align:top;">controller</td><td style="vertical-align:top;">:</td><td><div>default</div></td></tr><tr><td style="font-weight:bold;vertical-align:top;">cookies</td><td style="vertical-align:top;">:</td><td><div><table><tr><td style="font-weight:bold;vertical-align:top;">session_id_admin</td><td style="vertical-align:top;">:</td><td><div>127.0.0.1-beeec638-7b68-46fd-8490-21d1c7a447ad<table><tr><td style="font-weight:bold;vertical-align:top;">comment</td><td style="vertical-align:top;">:</td><td><div></div></td></tr><tr><td style="font-weight:bold;vertical-align:top;">domain</td><td style="vertical-align:top;">:</td><td><div></div></td></tr><tr><td style="font-weight:bold;vertical-align:top;">expires</td><td style="vertical-align:top;">:</td><td><div></div></td></tr><tr><td style="font-weight:bold;vertical-align:top;">httponly</td><td style="vertical-align:top;">:</td><td><div></div></td></tr><tr><td style="font-weight:bold;vertical-align:top;">max-age</td><td style="vertical-align:top;">:</td><td><div></div></td></tr><tr><td style="font-weight:bold;vertical-align:top;">path</td><td style="vertical-align:top;">:</td><td><div></div></td></tr><tr><td style="font-weight:bold;vertical-align:top;">secure</td><td style="vertical-align:top;">:</td><td><div></div></td></tr><tr><td style="font-weight:bold;vertical-align:top;">version</td><td style="vertical-align:top;">:</td><td><div></div></td></tr></table></div></td></tr><tr><td style="font-weight:bold;vertical-align:top;">session_id_ipos</td><td style="vertical-align:top;">:</td><td><div>127.0.0.1-270d9a01-ba5d-4738-adf1-afdb291a1cff<table><tr><td style="font-weight:bold;vertical-align:top;">comment</td><td style="vertical-align:top;">:</td><td><div></div></td></tr><tr><td style="font-weight:bold;vertical-align:top;">domain</td><td style="vertical-align:top;">:</td><td><div></div></td></tr><tr><td style="font-weight:bold;vertical-align:top;">expires</td><td style="vertical-align:top;">:</td><td><div></div></td></tr><tr><td style="font-weight:bold;vertical-align:top;">httponly</td><td style="vertical-align:top;">:</td><td><div></div></td></tr><tr><td style="font-weight:bold;vertical-align:top;">max-age</td><td style="vertical-align:top;">:</td><td><div></div></td></tr><tr><td style="font-weight:bold;vertical-align:top;">path</td><td style="vertical-align:top;">:</td><td><div></div></td></tr><tr><td style="font-weight:bold;vertical-align:top;">secure</td><td style="vertical-align:top;">:</td><td><div></div></td></tr><tr><td style="font-weight:bold;vertical-align:top;">version</td><td style="vertical-align:top;">:</td><td><div></div></td></tr></table></div></td></tr><tr><td style="font-weight:bold;vertical-align:top;">session_id_welcome</td><td style="vertical-align:top;">:</td><td><div>127.0.0.1-56a76cfa-0460-4a68-8881-22da4a2887ab<table><tr><td style="font-weight:bold;vertical-align:top;">comment</td><td style="vertical-align:top;">:</td><td><div></div></td></tr><tr><td style="font-weight:bold;vertical-align:top;">domain</td><td style="vertical-align:top;">:</td><td><div></div></td></tr><tr><td style="font-weight:bold;vertical-align:top;">expires</td><td style="vertical-align:top;">:</td><td><div></div></td></tr><tr><td style="font-weight:bold;vertical-align:top;">httponly</td><td style="vertical-align:top;">:</td><td><div></div></td></tr><tr><td style="font-weight:bold;vertical-align:top;">max-age</td><td style="vertical-align:top;">:</td><td><div></div></td></tr><tr><td style="font-weight:bold;vertical-align:top;">path</td><td style="vertical-align:top;">:</td><td><div></div></td></tr><tr><td style="font-weight:bold;vertical-align:top;">secure</td><td style="vertical-align:top;">:</td><td><div></div></td></tr><tr><td style="font-weight:bold;vertical-align:top;">version</td><td style="vertical-align:top;">:</td><td><div></div></td></tr></table></div></td></tr><tr><td style="font-weight:bold;vertical-align:top;">text_input</td><td style="vertical-align:top;">:</td><td><div><table><tr><td style="font-weight:bold;vertical-align:top;">comment</td><td style="vertical-align:top;">:</td><td><div></div></td></tr><tr><td style="font-weight:bold;vertical-align:top;">domain</td><td style="vertical-align:top;">:</td><td><div></div></td></tr><tr><td style="font-weight:bold;vertical-align:top;">expires</td><td style="vertical-align:top;">:</td><td><div></div></td></tr><tr><td style="font-weight:bold;vertical-align:top;">httponly</td><td style="vertical-align:top;">:</td><td><div></div></td></tr><tr><td style="font-weight:bold;vertical-align:top;">max-age</td><td style="vertical-align:top;">:</td><td><div></div></td></tr><tr><td style="font-weight:bold;vertical-align:top;">path</td><td style="vertical-align:top;">:</td><td><div></div></td></tr><tr><td style="font-weight:bold;vertical-align:top;">secure</td><td style="vertical-align:top;">:</td><td><div></div></td></tr><tr><td style="font-weight:bold;vertical-align:top;">version</td><td style="vertical-align:top;">:</td><td><div></div></td></tr></table></div></td></tr></table></div></td></tr><tr><td style="font-weight:bold;vertical-align:top;">env</td><td style="vertical-align:top;">:</td><td><div><table><tr><td style="font-weight:bold;vertical-align:top;">HTTP_ACCEPT</td><td style="vertical-align:top;">:</td><td><div>text/html,application/xhtml+xml,application/xml;q=0.9,image/webp,*/*;q=0.8</div></td></tr><tr><td style="font-weight:bold;vertical-align:top;">HTTP_ACCEPT_ENCODING</td><td style="vertical-align:top;">:</td><td><div>gzip, deflate, sdch, br</div></td></tr><tr><td style="font-weight:bold;vertical-align:top;">HTTP_ACCEPT_LANGUAGE</td><td style="vertical-align:top;">:</td><td><div>en-US,en;q=0.8</div></td></tr><tr><td style="font-weight:bold;vertical-align:top;">HTTP_CONNECTION</td><td style="vertical-align:top;">:</td><td><div>keep-alive</div></td></tr><tr><td style="font-weight:bold;vertical-align:top;">HTTP_COOKIE</td><td style="vertical-align:top;">:</td><td><div>text_input=; session_id_welcome=127.0.0.1-56a76cfa-0460-4a68-8881-22da4a2887ab; session_id_admin=127.0.0.1-beeec638-7b68-46fd-8490-21d1c7a447ad; session_id_ipos=127.0.0.1-270d9a01-ba5d-4738-adf1-afdb291a1cff; _ga=GA1.1.1005005347.1493353778; _gid=GA1.1.234391006.1494299688; _gat=1</div></td></tr><tr><td style="font-weight:bold;vertical-align:top;">HTTP_HOST</td><td style="vertical-align:top;">:</td><td><div>127.0.0.1:8000</div></td></tr><tr><td style="font-weight:bold;vertical-align:top;">HTTP_UPGRADE_INSECURE_REQUESTS</td><td style="vertical-align:top;">:</td><td><div>1</div></td></tr><tr><td style="font-weight:bold;vertical-align:top;">HTTP_USER_AGENT</td><td style="vertical-align:top;">:</td><td><div>Mozilla/5.0 (Macintosh; Intel Mac OS X 10_12_1) AppleWebKit/537.36 (KHTML, like Gecko) Chrome/57.0.2987.133 Safari/537.36</div></td></tr><tr><td style="font-weight:bold;vertical-align:top;">PATH_INFO</td><td style="vertical-align:top;">:</td><td><div>/ipos/default/add_company</div></td></tr><tr><td style="font-weight:bold;vertical-align:top;">QUERY_STRING</td><td style="vertical-align:top;">:</td><td><div></div></td></tr><tr><td style="font-weight:bold;vertical-align:top;">REMOTE_ADDR</td><td style="vertical-align:top;">:</td><td><div>127.0.0.1</div></td></tr><tr><td style="font-weight:bold;vertical-align:top;">REMOTE_PORT</td><td style="vertical-align:top;">:</td><td><div>53878</div></td></tr><tr><td style="font-weight:bold;vertical-align:top;">REQUEST_METHOD</td><td style="vertical-align:top;">:</td><td><div>GET</div></td></tr><tr><td style="font-weight:bold;vertical-align:top;">SCRIPT_NAME</td><td style="vertical-align:top;">:</td><td><div></div></td></tr><tr><td style="font-weight:bold;vertical-align:top;">SERVER_NAME</td><td style="vertical-align:top;">:</td><td><div>Brandons-MacBook-Pro-10.local</div></td></tr><tr><td style="font-weight:bold;vertical-align:top;">SERVER_PORT</td><td style="vertical-align:top;">:</td><td><div>8000</div></td></tr><tr><td style="font-weight:bold;vertical-align:top;">SERVER_PROTOCOL</td><td style="vertical-align:top;">:</td><td><div>HTTP/1.1</div></td></tr><tr><td style="font-weight:bold;vertical-align:top;">SERVER_SOFTWARE</td><td style="vertical-align:top;">:</td><td><div>Rocket 1.2.6</div></td></tr><tr><td style="font-weight:bold;vertical-align:top;">app_folders</td><td style="vertical-align:top;">:</td><td><div>set([&#x27;/Users/Brandon/Develop/ipo_web2py/applications/ipos/&#x27;])</div></td></tr><tr><td style="font-weight:bold;vertical-align:top;">applications_parent</td><td style="vertical-align:top;">:</td><td><div>/Users/Brandon/Develop/ipo_web2py</div></td></tr><tr><td style="font-weight:bold;vertical-align:top;">cmd_args</td><td style="vertical-align:top;">:</td><td><div><table></table></div></td></tr><tr><td style="font-weight:bold;vertical-align:top;">cmd_options</td><td style="vertical-align:top;">:</td><td><div>&lt;Values at 0x1050b6cf8: {&#x27;verbose&#x27;: False, &#x27;ip&#x27;: &#x27;127.0.0.1&#x27;, &#x27;debuglevel&#x27;: 30, &#x27;with_scheduler&#x27;: False, &#x27;shutdown_timeout&#x27;: 5, &#x27;taskbar&#x27;: False, &#x27;with_coverage&#x27;: False, &#x27;pid_filename&#x27;: &#x27;httpserver.pid&#x27;, &#x27;maxthreads&#x27;: None, &#x27;softcron&#x27;: False, &#x27;server_name&#x27;: &#x27;Brandons-MacBook-Pro-10.local&#x27;, &#x27;bpython&#x27;: False, &#x27;nogui&#x27;: False, &#x27;port&#x27;: 8000, &#x27;print_errors&#x27;: False, &#x27;extcron&#x27;: False, &#x27;runcron&#x27;: False, &#x27;run_system_tests&#x27;: False, &#x27;test&#x27;: None, &#x27;folder&#x27;: &#x27;/Users/Brandon/Develop/ipo_web2py&#x27;, &#x27;config&#x27;: &#x27;&#x27;, &#x27;minthreads&#x27;: None, &#x27;shell&#x27;: None, &#x27;run&#x27;: &#x27;&#x27;, &#x27;log_filename&#x27;: &#x27;httpserver.log&#x27;, &#x27;profiler_dir&#x27;: None, &#x27;args&#x27;: [&#x27;&#x27;], &#x27;socket_timeout&#x27;: 5, &#x27;ssl_ca_certificate&#x27;: None, &#x27;scheduler&#x27;: None, &#x27;interfaces&#x27;: None, &#x27;ssl_private_key&#x27;: &#x27;&#x27;, &#x27;gae&#x27;: None, &#x27;password&#x27;: &#x27;******&#x27;, &#x27;request_queue_size&#x27;: 5, &#x27;ssl_certificate&#x27;: &#x27;&#x27;, &#x27;cronjob&#x27;: False, &#x27;numthreads&#x27;: None, &#x27;quiet&#x27;: False, &#x27;import_models&#x27;: False, &#x27;timeout&#x27;: 10, &#x27;plain&#x27;: False, &#x27;nobanner&#x27;: False}&gt;</div></td></tr><tr><td style="font-weight:bold;vertical-align:top;">db_sessions</td><td style="vertical-align:top;">:</td><td><div>set([])</div></td></tr><tr><td style="font-weight:bold;vertical-align:top;">debugging</td><td style="vertical-align:top;">:</td><td><div>False</div></td></tr><tr><td style="font-weight:bold;vertical-align:top;">gluon_parent</td><td style="vertical-align:top;">:</td><td><div>/Users/Brandon/Develop/ipo_web2py</div></td></tr><tr><td style="font-weight:bold;vertical-align:top;">http_accept</td><td style="vertical-align:top;">:</td><td><div>text/html,application/xhtml+xml,application/xml;q=0.9,image/webp,*/*;q=0.8</div></td></tr><tr><td style="font-weight:bold;vertical-align:top;">http_accept_encoding</td><td style="vertical-align:top;">:</td><td><div>gzip, deflate, sdch, br</div></td></tr><tr><td style="font-weight:bold;vertical-align:top;">http_accept_language</td><td style="vertical-align:top;">:</td><td><div>en-US,en;q=0.8</div></td></tr><tr><td style="font-weight:bold;vertical-align:top;">http_connection</td><td style="vertical-align:top;">:</td><td><div>keep-alive</div></td></tr><tr><td style="font-weight:bold;vertical-align:top;">http_cookie</td><td style="vertical-align:top;">:</td><td><div>text_input=; session_id_welcome=127.0.0.1-56a76cfa-0460-4a68-8881-22da4a2887ab; session_id_admin=127.0.0.1-beeec638-7b68-46fd-8490-21d1c7a447ad; session_id_ipos=127.0.0.1-270d9a01-ba5d-4738-adf1-afdb291a1cff; _ga=GA1.1.1005005347.1493353778; _gid=GA1.1.234391006.1494299688; _gat=1</div></td></tr><tr><td style="font-weight:bold;vertical-align:top;">http_host</td><td style="vertical-align:top;">:</td><td><div>127.0.0.1:8000</div></td></tr><tr><td style="font-weight:bold;vertical-align:top;">http_upgrade_insecure_requests</td><td style="vertical-align:top;">:</td><td><div>1</div></td></tr><tr><td style="font-weight:bold;vertical-align:top;">http_user_agent</td><td style="vertical-align:top;">:</td><td><div>Mozilla/5.0 (Macintosh; Intel Mac OS X 10_12_1) AppleWebKit/537.36 (KHTML, like Gecko) Chrome/57.0.2987.133 Safari/537.36</div></td></tr><tr><td style="font-weight:bold;vertical-align:top;">is_jython</td><td style="vertical-align:top;">:</td><td><div>False</div></td></tr><tr><td style="font-weight:bold;vertical-align:top;">is_pypy</td><td style="vertical-align:top;">:</td><td><div>False</div></td></tr><tr><td style="font-weight:bold;vertical-align:top;">is_source</td><td style="vertical-align:top;">:</td><td><div>True</div></td></tr><tr><td style="font-weight:bold;vertical-align:top;">local_hosts</td><td style="vertical-align:top;">:</td><td><div><table><tr><td><div>fe80::1cbc:dfe5:de55:c354%en0</div></td></tr><tr><td><div>Brandons-MacBook-Pro-10.local</div></td></tr><tr><td><div>::ffff:127.0.0.1</div></td></tr><tr><td><div>::1</div></td></tr><tr><td><div>10.0.1.14</div></td></tr><tr><td><div>2604:5500:34:34fe:1475:cb72:68a:2a70</div></td></tr><tr><td><div>brandons-macbook-pro-10.local</div></td></tr><tr><td><div>127.0.0.1</div></td></tr></table></div></td></tr><tr><td style="font-weight:bold;vertical-align:top;">path_info</td><td style="vertical-align:top;">:</td><td><div>/ipos/default/add_company</div></td></tr><tr><td style="font-weight:bold;vertical-align:top;">query_string</td><td style="vertical-align:top;">:</td><td><div></div></td></tr><tr><td style="font-weight:bold;vertical-align:top;">remote_addr</td><td style="vertical-align:top;">:</td><td><div>127.0.0.1</div></td></tr><tr><td style="font-weight:bold;vertical-align:top;">remote_port</td><td style="vertical-align:top;">:</td><td><div>53878</div></td></tr><tr><td style="font-weight:bold;vertical-align:top;">request_method</td><td style="vertical-align:top;">:</td><td><div>GET</div></td></tr><tr><td style="font-weight:bold;vertical-align:top;">request_uri</td><td style="vertical-align:top;">:</td><td><div>/ipos/default/add_company</div></td></tr><tr><td style="font-weight:bold;vertical-align:top;">script_name</td><td style="vertical-align:top;">:</td><td><div></div></td></tr><tr><td style="font-weight:bold;vertical-align:top;">server_name</td><td style="vertical-align:top;">:</td><td><div>Brandons-MacBook-Pro-10.local</div></td></tr><tr><td style="font-weight:bold;vertical-align:top;">server_port</td><td style="vertical-align:top;">:</td><td><div>8000</div></td></tr><tr><td style="font-weight:bold;vertical-align:top;">server_protocol</td><td style="vertical-align:top;">:</td><td><div>HTTP/1.1</div></td></tr><tr><td style="font-weight:bold;vertical-align:top;">server_software</td><td style="vertical-align:top;">:</td><td><div>Rocket 1.2.6</div></td></tr><tr><td style="font-weight:bold;vertical-align:top;">web2py_original_uri</td><td style="vertical-align:top;">:</td><td><div>/ipos/default/add_company</div></td></tr><tr><td style="font-weight:bold;vertical-align:top;">web2py_path</td><td style="vertical-align:top;">:</td><td><div>/Users/Brandon/Develop/ipo_web2py</div></td></tr><tr><td style="font-weight:bold;vertical-align:top;">web2py_version</td><td style="vertical-align:top;">:</td><td><div>2.14.6-stable+timestamp.2016.05.10.00.21.47</div></td></tr><tr><td style="font-weight:bold;vertical-align:top;">wsgi.errors</td><td style="vertical-align:top;">:</td><td><div>&lt;open file &#x27;&lt;stderr&gt;&#x27;, mode &#x27;w&#x27; at 0x10028f1e0&gt;</div></td></tr><tr><td style="font-weight:bold;vertical-align:top;">wsgi.file_wrapper</td><td style="vertical-align:top;">:</td><td><div>&lt;class wsgiref.util.FileWrapper at 0x104aaf598&gt;</div></td></tr><tr><td style="font-weight:bold;vertical-align:top;">wsgi.input</td><td style="vertical-align:top;">:</td><td><div>&lt;socket._fileobject object at 0x10f272bd0&gt;</div></td></tr><tr><td style="font-weight:bold;vertical-align:top;">wsgi.multiprocess</td><td style="vertical-align:top;">:</td><td><div>False</div></td></tr><tr><td style="font-weight:bold;vertical-align:top;">wsgi.multithread</td><td style="vertical-align:top;">:</td><td><div>True</div></td></tr><tr><td style="font-weight:bold;vertical-align:top;">wsgi.run_once</td><td style="vertical-align:top;">:</td><td><div>False</div></td></tr><tr><td style="font-weight:bold;vertical-align:top;">wsgi.url_scheme</td><td style="vertical-align:top;">:</td><td><div>http</div></td></tr><tr><td style="font-weight:bold;vertical-align:top;">wsgi.version</td><td style="vertical-align:top;">:</td><td><div><table><tr><td><div>1</div></td></tr><tr><td><div>0</div></td></tr></table></div></td></tr><tr><td style="font-weight:bold;vertical-align:top;">wsgi_errors</td><td style="vertical-align:top;">:</td><td><div>&lt;open file &#x27;&lt;stderr&gt;&#x27;, mode &#x27;w&#x27; at 0x10028f1e0&gt;</div></td></tr><tr><td style="font-weight:bold;vertical-align:top;">wsgi_file_wrapper</td><td style="vertical-align:top;">:</td><td><div>&lt;class wsgiref.util.FileWrapper at 0x104aaf598&gt;</div></td></tr><tr><td style="font-weight:bold;vertical-align:top;">wsgi_input</td><td style="vertical-align:top;">:</td><td><div>&lt;socket._fileobject object at 0x10f272bd0&gt;</div></td></tr><tr><td style="font-weight:bold;vertical-align:top;">wsgi_multiprocess</td><td style="vertical-align:top;">:</td><td><div>False</div></td></tr><tr><td style="font-weight:bold;vertical-align:top;">wsgi_multithread</td><td style="vertical-align:top;">:</td><td><div>True</div></td></tr><tr><td style="font-weight:bold;vertical-align:top;">wsgi_run_once</td><td style="vertical-align:top;">:</td><td><div>False</div></td></tr><tr><td style="font-weight:bold;vertical-align:top;">wsgi_url_scheme</td><td style="vertical-align:top;">:</td><td><div>http</div></td></tr><tr><td style="font-weight:bold;vertical-align:top;">wsgi_version</td><td style="vertical-align:top;">:</td><td><div><table><tr><td><div>1</div></td></tr><tr><td><div>0</div></td></tr></table></div></td></tr></table></div></td></tr><tr><td style="font-weight:bold;vertical-align:top;">extension</td><td style="vertical-align:top;">:</td><td><div>html</div></td></tr><tr><td style="font-weight:bold;vertical-align:top;">folder</td><td style="vertical-align:top;">:</td><td><div>/Users/Brandon/Develop/ipo_web2py/applications/ipos/</div></td></tr><tr><td style="font-weight:bold;vertical-align:top;">function</td><td style="vertical-align:top;">:</td><td><div>add_company</div></td></tr><tr><td style="font-weight:bold;vertical-align:top;">global_settings</td><td style="vertical-align:top;">:</td><td><div><table><tr><td style="font-weight:bold;vertical-align:top;">app_folders</td><td style="vertical-align:top;">:</td><td><div>set([&#x27;/Users/Brandon/Develop/ipo_web2py/applications/ipos/&#x27;])</div></td></tr><tr><td style="font-weight:bold;vertical-align:top;">applications_parent</td><td style="vertical-align:top;">:</td><td><div>/Users/Brandon/Develop/ipo_web2py</div></td></tr><tr><td style="font-weight:bold;vertical-align:top;">cmd_args</td><td style="vertical-align:top;">:</td><td><div><table></table></div></td></tr><tr><td style="font-weight:bold;vertical-align:top;">cmd_options</td><td style="vertical-align:top;">:</td><td><div>&lt;Values at 0x1050b6cf8: {&#x27;verbose&#x27;: False, &#x27;ip&#x27;: &#x27;127.0.0.1&#x27;, &#x27;debuglevel&#x27;: 30, &#x27;with_scheduler&#x27;: False, &#x27;shutdown_timeout&#x27;: 5, &#x27;taskbar&#x27;: False, &#x27;with_coverage&#x27;: False, &#x27;pid_filename&#x27;: &#x27;httpserver.pid&#x27;, &#x27;maxthreads&#x27;: None, &#x27;softcron&#x27;: False, &#x27;server_name&#x27;: &#x27;Brandons-MacBook-Pro-10.local&#x27;, &#x27;bpython&#x27;: False, &#x27;nogui&#x27;: False, &#x27;port&#x27;: 8000, &#x27;print_errors&#x27;: False, &#x27;extcron&#x27;: False, &#x27;runcron&#x27;: False, &#x27;run_system_tests&#x27;: False, &#x27;test&#x27;: None, &#x27;folder&#x27;: &#x27;/Users/Brandon/Develop/ipo_web2py&#x27;, &#x27;config&#x27;: &#x27;&#x27;, &#x27;minthreads&#x27;: None, &#x27;shell&#x27;: None, &#x27;run&#x27;: &#x27;&#x27;, &#x27;log_filename&#x27;: &#x27;httpserver.log&#x27;, &#x27;profiler_dir&#x27;: None, &#x27;args&#x27;: [&#x27;&#x27;], &#x27;socket_timeout&#x27;: 5, &#x27;ssl_ca_certificate&#x27;: None, &#x27;scheduler&#x27;: None, &#x27;interfaces&#x27;: None, &#x27;ssl_private_key&#x27;: &#x27;&#x27;, &#x27;gae&#x27;: None, &#x27;password&#x27;: &#x27;******&#x27;, &#x27;request_queue_size&#x27;: 5, &#x27;ssl_certificate&#x27;: &#x27;&#x27;, &#x27;cronjob&#x27;: False, &#x27;numthreads&#x27;: None, &#x27;quiet&#x27;: False, &#x27;import_models&#x27;: False, &#x27;timeout&#x27;: 10, &#x27;plain&#x27;: False, &#x27;nobanner&#x27;: False}&gt;</div></td></tr><tr><td style="font-weight:bold;vertical-align:top;">db_sessions</td><td style="vertical-align:top;">:</td><td><div>set([])</div></td></tr><tr><td style="font-weight:bold;vertical-align:top;">debugging</td><td style="vertical-align:top;">:</td><td><div>False</div></td></tr><tr><td style="font-weight:bold;vertical-align:top;">gluon_parent</td><td style="vertical-align:top;">:</td><td><div>/Users/Brandon/Develop/ipo_web2py</div></td></tr><tr><td style="font-weight:bold;vertical-align:top;">is_jython</td><td style="vertical-align:top;">:</td><td><div>False</div></td></tr><tr><td style="font-weight:bold;vertical-align:top;">is_pypy</td><td style="vertical-align:top;">:</td><td><div>False</div></td></tr><tr><td style="font-weight:bold;vertical-align:top;">is_source</td><td style="vertical-align:top;">:</td><td><div>True</div></td></tr><tr><td style="font-weight:bold;vertical-align:top;">local_hosts</td><td style="vertical-align:top;">:</td><td><div><table><tr><td><div>fe80::1cbc:dfe5:de55:c354%en0</div></td></tr><tr><td><div>Brandons-MacBook-Pro-10.local</div></td></tr><tr><td><div>::ffff:127.0.0.1</div></td></tr><tr><td><div>::1</div></td></tr><tr><td><div>10.0.1.14</div></td></tr><tr><td><div>2604:5500:34:34fe:1475:cb72:68a:2a70</div></td></tr><tr><td><div>brandons-macbook-pro-10.local</div></td></tr><tr><td><div>127.0.0.1</div></td></tr></table></div></td></tr><tr><td style="font-weight:bold;vertical-align:top;">web2py_version</td><td style="vertical-align:top;">:</td><td><div>2.14.6-stable+timestamp.2016.05.10.00.21.47</div></td></tr></table></div></td></tr><tr><td style="font-weight:bold;vertical-align:top;">is_https</td><td style="vertical-align:top;">:</td><td><div>False</div></td></tr><tr><td style="font-weight:bold;vertical-align:top;">is_local</td><td style="vertical-align:top;">:</td><td><div>True</div></td></tr><tr><td style="font-weight:bold;vertical-align:top;">is_restful</td><td style="vertical-align:top;">:</td><td><div>False</div></td></tr><tr><td style="font-weight:bold;vertical-align:top;">is_scheduler</td><td style="vertical-align:top;">:</td><td><div>False</div></td></tr><tr><td style="font-weight:bold;vertical-align:top;">is_shell</td><td style="vertical-align:top;">:</td><td><div>False</div></td></tr><tr><td style="font-weight:bold;vertical-align:top;">now</td><td style="vertical-align:top;">:</td><td><div>datetime.datetime(2017, 5, 8, 20, 14, 54, 878695)</div></td></tr><tr><td style="font-weight:bold;vertical-align:top;">url</td><td style="vertical-align:top;">:</td><td><div>/ipos/default/add_company</div></td></tr><tr><td style="font-weight:bold;vertical-align:top;">utcnow</td><td style="vertical-align:top;">:</td><td><div>datetime.datetime(2017, 5, 9, 3, 14, 54, 878703)</div></td></tr><tr><td style="font-weight:bold;vertical-align:top;">wsgi</td><td style="vertical-align:top;">:</td><td><div>&lt;gluon.main.LazyWSGI object at 0x10f2d0a10&gt;</div></td></tr></table></div>'
tRp62
sS'frames'
p63
(lp64
(dp65
S'file'
p66
S'/Users/Brandon/Develop/ipo_web2py/gluon/restricted.py'
p67
sS'dump'
p68
(dp69
S'environment'
p70
S"{'A': <class 'gluon.html.A'>, 'ANY_OF': <class 'gluon.validators.ANY_OF'>, 'ASSIGNJS': <function ASSIGNJS>, 'AppConfig': <function AppConfig>, 'B': <class 'gluon.html.B'>, 'BEAUTIFY': <class 'gluon.html.BEAUTIFY'>, 'BODY': <class 'gluon.html.BODY'>, 'BR': <class 'gluon.html.BR'>, 'BUTTON': <class 'gluon.html.BUTTON'>, 'CAT': <class 'gluon.html.CAT'>, ...}"
p71
sS'ccode'
p72
S'<code object <module> at 0x10f2bacb0, file "/Use...plications/ipos/controllers/default.py", line 11>'
p73
ssS'lnum'
p74
I227
sS'lines'
p75
(dp76
I224
S'            ccode = code'
p77
sI225
S'        else:'
p78
sI226
S'            ccode = compile2(code, layer)'
p79
sI227
S'        exec ccode in environment'
p80
sI228
S'    except HTTP:'
p81
sI229
S'        raise'
p82
sI230
S'    except RestrictedError:'
p83
sI231
S'        # do not encapsulate (obfuscate) the original RestrictedError'
p84
sI222
S'    try:'
p85
sI223
S'        if isinstance(code, types.CodeType):'
p86
ssS'call'
p87
S"(code='# -*- coding: utf-8 -*-\\n# this file is released ...\\n\\n\\n\\nresponse._vars=response._caller(add_company)\\n', environment={'A': <class 'gluon.html.A'>, 'ANY_OF': <class 'gluon.validators.ANY_OF'>, 'ASSIGNJS': <function ASSIGNJS>, 'AppConfig': <function AppConfig>, 'B': <class 'gluon.html.B'>, 'BEAUTIFY': <class 'gluon.html.BEAUTIFY'>, 'BODY': <class 'gluon.html.BODY'>, 'BR': <class 'gluon.html.BR'>, 'BUTTON': <class 'gluon.html.BUTTON'>, 'CAT': <class 'gluon.html.CAT'>, ...}, layer='/Users/Brandon/Develop/ipo_web2py/applications/ipos/controllers/default.py')"
p88
sS'func'
p89
S'restricted'
p90
sa(dp91
g66
S'/Users/Brandon/Develop/ipo_web2py/applications/ipos/controllers/default.py'
p92
sg68
(dp93
sg74
I87
sg75
(dp94
I76
S'def call():'
p95
sI77
S'    """'
p96
sI78
S'    exposes services. for example:'
p97
sI79
S'    http://..../[app]/default/call/jsonrpc'
p98
sI80
S'    decorate with @services.jsonrpc the functions to expose'
p99
sI81
S'    supports xml, json, xmlrpc, jsonrpc, amfrpc, rss, csv'
p100
sI82
S'    """'
p101
sI83
S'    return service()'
p102
sI84
S''
sI85
S''
ssg87
S'()'
p103
sg89
S'<module>'
p104
sa(dp105
g66
S'/Users/Brandon/Develop/ipo_web2py/gluon/globals.py'
p106
sg68
(dp107
S'self'
p108
S'undefined'
p109
sS'f'
S'<function add_company>'
p110
ssg74
I417
sg75
(dp111
I416
S'        self._vars = None'
p112
sI417
S'        self._caller = lambda f: f()'
p113
sI418
S'        self._view_environment = None'
p114
sI419
S'        self._custom_commit = None'
p115
sI420
S'        self._custom_rollback = None'
p116
sI421
S"        self.generic_patterns = ['*']"
p117
sI412
S"        self.flash = ''            # used by the default view layout"
p118
sI413
S'        self.meta = Storage()      # used by web2py_ajax.html'
p119
sI414
S'        self.menu = []             # used by the default view layout'
p120
sI415
S'        self.files = []            # used by web2py_ajax.html'
p121
ssg87
S'(f=<function add_company>)'
p122
sg89
S'<lambda>'
p123
sa(dp124
g66
S'/Users/Brandon/Develop/ipo_web2py/applications/ipos/controllers/default.py'
p125
sg68
(dp126
S'global db'
p127
S'<DAL uri="mysql:******@localhost/IPOS">'
p128
sS'global SQLFORM'
p129
S"<class 'gluon.sqlhtml.SQLFORM'>"
p130
sS').process'
p131
g109
sS'form'
p132
g109
sS'db.company_info'
p133
S'<Table company_info (id, name, ticker, exchange, country, data_source_id)>'
p134
ssg74
I56
sg75
(dp135
I51
S"    redirect(URL('matcher',vars=variables))"
p136
sI52
S''
sI53
S''
sI54
S''
sI55
S'def add_company():'
p137
sI56
S'    form=SQLFORM(db.company_info).process()'
p138
sI57
S'    if form.accepts(request,session):'
p139
sI58
S"        response.flash = 'form accepted'"
p140
sI59
S'    elif form.errors:'
p141
sI60
S"        response.flash = 'form has errors'"
p142
ssg87
S'()'
p143
sg89
S'add_company'
p144
sa(dp145
g66
S'/Users/Brandon/Develop/ipo_web2py/gluon/packages/dal/pydal/base.py'
p146
sg68
(dp147
S'fields'
p148
S'(<pydal.objects.Field object>, <pydal.objects.Field object>, <pydal.objects.Field object>, <pydal.objects.Field object>, <pydal.objects.Field object>)'
p149
sS'self'
p150
S'<DAL uri="mysql:******@localhost/IPOS">'
p151
sS'self.lazy_define_table'
p152
S'<bound method DAL.lazy_define_table of <DAL uri="mysql:******@localhost/IPOS">>'
p153
sS'tablename'
p154
S"'company_info'"
p155
sS'args'
p156
g21
ssg74
I920
sg75
(dp157
I915
S''
sI916
S'    def __getattr__(self, key):'
p158
sI917
S"        if object.__getattribute__(self, '_lazy_tables') and \\"
p159
sI918
S"                key in object.__getattribute__(self, '_LAZY_TABLES'):"
p160
sI919
S'            tablename, fields, args = self._LAZY_TABLES.pop(key)'
p161
sI920
S'            return self.lazy_define_table(tablename, *fields, **args)'
p162
sI921
S'        return BasicStorage.__getattribute__(self, key)'
p163
sI922
S''
sI923
S'    def __setattr__(self, key, value):'
p164
sI924
S"        if key[:1] != '_' and key in self:"
p165
ssg87
S'(self=<DAL uri="mysql:******@localhost/IPOS">, key=\'company_info\')'
p166
sg89
S'__getattr__'
p167
sa(dp168
g66
S'/Users/Brandon/Develop/ipo_web2py/gluon/packages/dal/pydal/base.py'
p169
sg68
(dp170
S'table'
p171
S'<Table company_info (id, name, ticker, exchange, country, data_source_id)>'
p172
sS'table._create_references'
p173
S'<bound method Table._create_references of <Table...ame, ticker, exchange, country, data_source_id)>>'
p174
ssg74
I855
sg75
(dp175
I850
S"        table_class = args_get('table_class',Table)"
p176
sI851
S'        table = table_class(self, tablename, *fields, **args)'
p177
sI852
S'        table._actual = True'
p178
sI853
S'        self[tablename] = table'
p179
sI854
S'        # must follow above line to handle self references'
p180
sI855
S'        table._create_references()'
p181
sI856
S'        for field in table:'
p182
sI857
S'            if field.requires == DEFAULT:'
p183
sI858
S'                field.requires = auto_validators(field)'
p184
sI859
S'            if field.represent is None:'
p185
ssg87
S'(self=<DAL uri="mysql:******@localhost/IPOS">, tablename=\'company_info\', *fields=(<pydal.objects.Field object>, <pydal.objects.Field object>, <pydal.objects.Field object>, <pydal.objects.Field object>, <pydal.objects.Field object>), **args={})'
p186
sg89
S'lazy_define_table'
p187
sa(dp188
g66
S'/Users/Brandon/Develop/ipo_web2py/gluon/packages/dal/pydal/objects.py'
p189
sg68
(dp190
S'rtable'
p191
g109
sS'rtablename'
p192
S"'data_source'"
p193
sS'db'
p194
S'<DAL uri="mysql:******@localhost/IPOS">'
p195
ssg74
I440
sg75
(dp196
I435
S'                else:'
p197
sI436
S'                    rtablename, rfieldname = ref, None'
p198
sI437
S'                if not rtablename in db:'
p199
sI438
S'                    pr[rtablename] = pr.get(rtablename, []) + [field]'
p200
sI439
S'                    continue'
p201
sI440
S'                rtable = db[rtablename]'
p202
sI441
S'                if rfieldname:'
p203
sI442
S"                    if not hasattr(rtable, '_primarykey'):"
p204
sI443
S'                        raise SyntaxError('
p205
sI444
S"                            'keyed tables can only reference other keyed tables (for now)')"
p206
ssg87
S'(self=<Table company_info (id, name, ticker, exchange, country, data_source_id)>)'
p207
sg89
S'_create_references'
p208
sa(dp209
g66
S'/Users/Brandon/Develop/ipo_web2py/gluon/packages/dal/pydal/base.py'
p210
sg68
(dp211
S'builtinstr'
p212
S"<type 'str'>"
p213
sS'self.__getattr__'
p214
S'<bound method DAL.__getattr__ of <DAL uri="mysql:******@localhost/IPOS">>'
p215
sS'self'
p216
S'<DAL uri="mysql:******@localhost/IPOS">'
p217
sS'key'
p218
S"'data_source'"
p219
ssg74
I914
sg75
(dp220
I909
S'    def __iter__(self):'
p221
sI910
S'        for tablename in self.tables:'
p222
sI911
S'            yield self[tablename]'
p223
sI912
S''
sI913
S'    def __getitem__(self, key):'
p224
sI914
S'        return self.__getattr__(str(key))'
p225
sI915
S''
sI916
S'    def __getattr__(self, key):'
p226
sI917
S"        if object.__getattribute__(self, '_lazy_tables') and \\"
p227
sI918
S"                key in object.__getattribute__(self, '_LAZY_TABLES'):"
p228
ssg87
S'(self=<DAL uri="mysql:******@localhost/IPOS">, key=\'data_source\')'
p229
sg89
g40
sa(dp230
g66
S'/Users/Brandon/Develop/ipo_web2py/gluon/packages/dal/pydal/base.py'
p231
sg68
(dp232
S'fields'
p233
S'(<pydal.objects.Field object>, <pydal.objects.Field object>, <pydal.objects.Field object>)'
p234
sS'self'
p235
S'<DAL uri="mysql:******@localhost/IPOS">'
p236
sS'self.lazy_define_table'
p237
S'<bound method DAL.lazy_define_table of <DAL uri="mysql:******@localhost/IPOS">>'
p238
sS'tablename'
p239
S"'data_source'"
p240
sS'args'
p241
g21
ssg74
I920
sg75
(dp242
I915
S''
sI916
S'    def __getattr__(self, key):'
p243
sI917
S"        if object.__getattribute__(self, '_lazy_tables') and \\"
p244
sI918
S"                key in object.__getattribute__(self, '_LAZY_TABLES'):"
p245
sI919
S'            tablename, fields, args = self._LAZY_TABLES.pop(key)'
p246
sI920
S'            return self.lazy_define_table(tablename, *fields, **args)'
p247
sI921
S'        return BasicStorage.__getattribute__(self, key)'
p248
sI922
S''
sI923
S'    def __setattr__(self, key, value):'
p249
sI924
S"        if key[:1] != '_' and key in self:"
p250
ssg87
S'(self=<DAL uri="mysql:******@localhost/IPOS">, key=\'data_source\')'
p251
sg89
g167
sa(dp252
g66
S'/Users/Brandon/Develop/ipo_web2py/gluon/packages/dal/pydal/base.py'
p253
sg68
(dp254
S'polymodel'
p255
S'None'
p256
ssg74
I873
sg75
(dp257
I868
S'            try:'
p258
sI869
S'                GLOBAL_LOCKER.acquire()'
p259
sI870
S'                self._lastsql = self._adapter.create_table('
p260
sI871
S'                    table,migrate=migrate,'
p261
sI872
S'                    fake_migrate=fake_migrate,'
p262
sI873
S'                    polymodel=polymodel)'
p263
sI874
S'            finally:'
p264
sI875
S'                GLOBAL_LOCKER.release()'
p265
sI876
S'        else:'
p266
sI877
S'            table._dbt = None'
p267
ssg87
S'(self=<DAL uri="mysql:******@localhost/IPOS">, tablename=\'data_source\', *fields=(<pydal.objects.Field object>, <pydal.objects.Field object>, <pydal.objects.Field object>), **args={})'
p268
sg89
g187
sa(dp269
g66
S'/Users/Brandon/Develop/ipo_web2py/gluon/packages/dal/pydal/adapters/base.py'
p270
sg68
(dp271
S'query'
p272
S"'CREATE TABLE data_source(\\n    id INT AUTO_INCREM...MARY KEY (id)\\n) ENGINE=InnoDB CHARACTER SET utf8;'"
p273
sS'self'
p274
S'<pydal.adapters.mysql.MySQLAdapter object>'
p275
sS'table'
p276
S'<Table data_source (id, source, date_time, type)>'
p277
sS'self.create_sequence_and_triggers'
p278
S'<bound method MySQLAdapter.create_sequence_and_t...rs of <pydal.adapters.mysql.MySQLAdapter object>>'
p279
ssg74
I482
sg75
(dp280
I480
S'                            query), table)'
p281
sI481
S'            if not fake_migrate:'
p282
sI482
S'                self.create_sequence_and_triggers(query, table)'
p283
sI483
S'                db.commit()'
p284
sI484
S'                # Postgres geom fields are added now,'
p285
sI485
S'                # after the table has been created'
p286
sI486
S'                for query in postcreation_fields:'
p287
sI477
S'            if table._dbt:'
p288
sI478
S"                self.log('timestamp: %s\\n%s\\n'"
p289
sI479
S'                         % (datetime.datetime.today().isoformat(),'
p290
ssg87
S'(self=<pydal.adapters.mysql.MySQLAdapter object>, table=<Table data_source (id, source, date_time, type)>, migrate=True, fake_migrate=False, polymodel=None)'
p291
sg89
S'create_table'
p292
sa(dp293
g66
S'/Users/Brandon/Develop/ipo_web2py/gluon/packages/dal/pydal/adapters/base.py'
p294
sg68
(dp295
S'query'
p296
S"'CREATE TABLE data_source(\\n    id INT AUTO_INCREM...MARY KEY (id)\\n) ENGINE=InnoDB CHARACTER SET utf8;'"
p297
sS'self'
p298
S'<pydal.adapters.mysql.MySQLAdapter object>'
p299
sS'self.execute'
p300
S'<bound method MySQLAdapter.execute of <pydal.adapters.mysql.MySQLAdapter object>>'
p301
ssg74
I1369
sg75
(dp302
I1364
S''
sI1365
S'    def constraint_name(self, table, fieldname):'
p303
sI1366
S"        return '%s_%s__constraint' % (table,fieldname)"
p304
sI1367
S''
sI1368
S'    def create_sequence_and_triggers(self, query, table, **args):'
p305
sI1369
S'        self.execute(query)'
p306
sI1370
S''
sI1371
S''
sI1372
S'    def log_execute(self, *a, **b):'
p307
sI1373
S'        if not self.connection: raise ValueError(a[0])'
p308
ssg87
S"(self=<pydal.adapters.mysql.MySQLAdapter object>, query='CREATE TABLE data_source(\\n    id INT AUTO_INCREM...MARY KEY (id)\\n) ENGINE=InnoDB CHARACTER SET utf8;', table=<Table data_source (id, source, date_time, type)>, **args={})"
p309
sg89
S'create_sequence_and_triggers'
p310
sa(dp311
g66
S'/Users/Brandon/Develop/ipo_web2py/gluon/packages/dal/pydal/adapters/base.py'
p312
sg68
(dp313
S'a'
S"('CREATE TABLE data_source(\\n    id INT AUTO_INCREM...MARY KEY (id)\\n) ENGINE=InnoDB CHARACTER SET utf8;',)"
p314
sS'self'
p315
S'<pydal.adapters.mysql.MySQLAdapter object>'
p316
sS'b'
g21
sS'self.log_execute'
p317
S'<bound method MySQLAdapter.log_execute of <pydal.adapters.mysql.MySQLAdapter object>>'
p318
ssg74
I1388
sg75
(dp319
I1383
S'        self.db._timings.append((command,time.time()-t0))'
p320
sI1384
S'        del self.db._timings[:-TIMINGSSIZE]'
p321
sI1385
S'        return ret'
p322
sI1386
S''
sI1387
S'    def execute(self, *a, **b):'
p323
sI1388
S'        return self.log_execute(*a, **b)'
p324
sI1389
S''
sI1390
S'    def execute_test_query(self):'
p325
sI1391
S'        return self.execute(self.test_query)'
p326
sI1392
S''
ssg87
S"(self=<pydal.adapters.mysql.MySQLAdapter object>, *a=('CREATE TABLE data_source(\\n    id INT AUTO_INCREM...MARY KEY (id)\\n) ENGINE=InnoDB CHARACTER SET utf8;',), **b={})"
p327
sg89
S'execute'
p328
sa(dp329
g66
S'/Users/Brandon/Develop/ipo_web2py/gluon/packages/dal/pydal/adapters/base.py'
p330
sg68
(dp331
S'a'
S"('CREATE TABLE data_source(\\n    id INT AUTO_INCREM...MARY KEY (id)\\n) ENGINE=InnoDB CHARACTER SET utf8;',)"
p332
sS'b'
g21
sS'self'
p333
S'<pydal.adapters.mysql.MySQLAdapter object>'
p334
sS'ret'
p335
g109
sS'command'
p336
S"'CREATE TABLE data_source(\\n    id INT AUTO_INCREM...MARY KEY (id)\\n) ENGINE=InnoDB CHARACTER SET utf8;'"
p337
sS'self.get_cursor'
p338
S'<bound method MySQLAdapter.get_cursor of <pydal.adapters.mysql.MySQLAdapter object>>'
p339
sS').execute'
p340
g109
ssg74
I1382
sg75
(dp341
I1377
S'            command = self.filter_sql_command(command)'
p342
sI1378
S'        if self.db._debug:'
p343
sI1379
S"            self.db.logger.debug('SQL: %s' % command)"
p344
sI1380
S'        self.db._lastsql = command'
p345
sI1381
S'        t0 = time.time()'
p346
sI1382
S'        ret = self.get_cursor().execute(command, *a[1:], **b)'
p347
sI1383
S'        self.db._timings.append((command,time.time()-t0))'
p348
sI1384
S'        del self.db._timings[:-TIMINGSSIZE]'
p349
sI1385
S'        return ret'
p350
sI1386
S''
ssg87
S"(self=<pydal.adapters.mysql.MySQLAdapter object>, *a=('CREATE TABLE data_source(\\n    id INT AUTO_INCREM...MARY KEY (id)\\n) ENGINE=InnoDB CHARACTER SET utf8;',), **b={})"
p351
sg89
S'log_execute'
p352
sa(dp353
g66
S'/Users/Brandon/anaconda/lib/python2.7/site-packages/pymysql/cursors.py'
p354
sg68
(dp355
S'query'
p356
S"'CREATE TABLE data_source(\\n    id INT AUTO_INCREM...MARY KEY (id)\\n) ENGINE=InnoDB CHARACTER SET utf8;'"
p357
sS'self'
p358
S'<pymysql.cursors.Cursor object>'
p359
sS'result'
p360
g109
sS'self._query'
p361
S'<bound method Cursor._query of <pymysql.cursors.Cursor object>>'
p362
ssg74
I166
sg75
(dp363
I161
S'        while self.nextset():'
p364
sI162
S'            pass'
p365
sI163
S''
sI164
S'        query = self.mogrify(query, args)'
p366
sI165
S''
sI166
S'        result = self._query(query)'
p367
sI167
S'        self._executed = query'
p368
sI168
S'        return result'
p369
sI169
S''
sI170
S'    def executemany(self, query, args):'
p370
ssg87
S"(self=<pymysql.cursors.Cursor object>, query='CREATE TABLE data_source(\\n    id INT AUTO_INCREM...MARY KEY (id)\\n) ENGINE=InnoDB CHARACTER SET utf8;', args=None)"
p371
sg89
g328
sa(dp372
g66
S'/Users/Brandon/anaconda/lib/python2.7/site-packages/pymysql/cursors.py'
p373
sg68
(dp374
S'q'
S"'CREATE TABLE data_source(\\n    id INT AUTO_INCREM...MARY KEY (id)\\n) ENGINE=InnoDB CHARACTER SET utf8;'"
p375
sS'conn.query'
p376
S'<bound method Connection.query of <pymysql.connections.Connection object>>'
p377
sS'conn'
p378
S'<pymysql.connections.Connection object>'
p379
ssg74
I322
sg75
(dp380
I320
S'        conn = self._get_db()'
p381
sI321
S'        self._last_executed = q'
p382
sI322
S'        conn.query(q)'
p383
sI323
S'        self._do_get_result()'
p384
sI324
S'        return self.rowcount'
p385
sI325
S''
sI326
S'    def _do_get_result(self):'
p386
sI317
S'        self.rownumber = r'
p387
sI318
S''
sI319
S'    def _query(self, q):'
p388
ssg87
S"(self=<pymysql.cursors.Cursor object>, q='CREATE TABLE data_source(\\n    id INT AUTO_INCREM...MARY KEY (id)\\n) ENGINE=InnoDB CHARACTER SET utf8;')"
p389
sg89
S'_query'
p390
sa(dp391
g66
S'/Users/Brandon/anaconda/lib/python2.7/site-packages/pymysql/connections.py'
p392
sg68
(dp393
S'self._read_query_result'
p394
S'<bound method Connection._read_query_result of <pymysql.connections.Connection object>>'
p395
sS'self'
p396
S'<pymysql.connections.Connection object>'
p397
sS'unbuffered'
p398
S'False'
p399
sS'self._affected_rows'
p400
S'0'
ssg74
I856
sg75
(dp401
I851
S'            if PY2:'
p402
sI852
S'                sql = sql.encode(self.encoding)'
p403
sI853
S'            else:'
p404
sI854
S"                sql = sql.encode(self.encoding, 'surrogateescape')"
p405
sI855
S'        self._execute_command(COMMAND.COM_QUERY, sql)'
p406
sI856
S'        self._affected_rows = self._read_query_result(unbuffered=unbuffered)'
p407
sI857
S'        return self._affected_rows'
p408
sI858
S''
sI859
S'    def next_result(self, unbuffered=False):'
p409
sI860
S'        self._affected_rows = self._read_query_result(unbuffered=unbuffered)'
p410
ssg87
S"(self=<pymysql.connections.Connection object>, sql='CREATE TABLE data_source(\\n    id INT AUTO_INCREM...MARY KEY (id)\\n) ENGINE=InnoDB CHARACTER SET utf8;', unbuffered=False)"
p411
sg89
S'query'
p412
sa(dp413
g66
S'/Users/Brandon/anaconda/lib/python2.7/site-packages/pymysql/connections.py'
p414
sg68
(dp415
S'result.read'
p416
S'<bound method MySQLResult.read of <pymysql.connections.MySQLResult object>>'
p417
sS'result'
p418
S'<pymysql.connections.MySQLResult object>'
p419
ssg74
I1057
sg75
(dp420
I1056
S'            result = MySQLResult(self)'
p421
sI1057
S'            result.read()'
p422
sI1058
S'        self._result = result'
p423
sI1059
S'        if result.server_status is not None:'
p424
sI1060
S'            self.server_status = result.server_status'
p425
sI1061
S'        return result.affected_rows'
p426
sI1052
S'                result.unbuffered_active = False'
p427
sI1053
S'                result.connection = None'
p428
sI1054
S'                raise'
p429
sI1055
S'        else:'
p430
ssg87
S'(self=<pymysql.connections.Connection object>, unbuffered=False)'
p431
sg89
S'_read_query_result'
p432
sa(dp433
g66
S'/Users/Brandon/anaconda/lib/python2.7/site-packages/pymysql/connections.py'
p434
sg68
(dp435
S'first_packet'
p436
g109
sS'self'
p437
S'<pymysql.connections.MySQLResult object>'
p438
sS'self.connection'
p439
S'None'
p440
sS'self.connection._read_packet'
p441
g109
ssg74
I1340
sg75
(dp442
I1344
S'            elif first_packet.is_load_local_packet():'
p443
sI1335
S'        if self.unbuffered_active:'
p444
sI1336
S'            self._finish_unbuffered_query()'
p445
sI1337
S''
sI1338
S'    def read(self):'
p446
sI1339
S'        try:'
p447
sI1340
S'            first_packet = self.connection._read_packet()'
p448
sI1341
S''
sI1342
S'            if first_packet.is_ok_packet():'
p449
sI1343
S'                self._read_ok_packet(first_packet)'
p450
ssg87
S'(self=<pymysql.connections.MySQLResult object>)'
p451
sg89
S'read'
p452
sa(dp453
g66
S'/Users/Brandon/anaconda/lib/python2.7/site-packages/pymysql/connections.py'
p454
sg68
(dp455
S'packet'
p456
S'<pymysql.connections.MysqlPacket object>'
p457
sS'packet.check_error'
p458
S'<bound method MysqlPacket.check_error of <pymysql.connections.MysqlPacket object>>'
p459
ssg74
I1014
sg75
(dp460
I1009
S'                continue'
p461
sI1010
S'            if bytes_to_read < MAX_PACKET_LEN:'
p462
sI1011
S'                break'
p463
sI1012
S''
sI1013
S'        packet = packet_type(buff, self.encoding)'
p464
sI1014
S'        packet.check_error()'
p465
sI1015
S'        return packet'
p466
sI1016
S''
sI1017
S'    def _read_bytes(self, num_bytes):'
p467
sI1018
S'        self._sock.settimeout(self._read_timeout)'
p468
ssg87
S"(self=<pymysql.connections.Connection object>, packet_type=<class 'pymysql.connections.MysqlPacket'>)"
p469
sg89
S'_read_packet'
p470
sa(dp471
g66
S'/Users/Brandon/anaconda/lib/python2.7/site-packages/pymysql/connections.py'
p472
sg68
(dp473
S'self._data'
p474
S'"\\xff\\x1a\\x04#42S01Table \'data_source\' already exists"'
p475
sS'self'
p476
S'<pymysql.connections.MysqlPacket object>'
p477
sS'global err'
p478
S"<module 'pymysql.err' from '/Users/Brandon/anaconda/lib/python2.7/site-packages/pymysql/err.pyc'>"
p479
sS'err.raise_mysql_exception'
p480
S'<function raise_mysql_exception>'
p481
ssg74
I393
sg75
(dp482
I388
S'        if self.is_error_packet():'
p483
sI389
S'            self.rewind()'
p484
sI390
S'            self.advance(1)  # field_count == error (we already know that)'
p485
sI391
S'            errno = self.read_uint16()'
p486
sI392
S'            if DEBUG: print("errno =", errno)'
p487
sI393
S'            err.raise_mysql_exception(self._data)'
p488
sI394
S''
sI395
S'    def dump(self):'
p489
sI396
S'        dump_packet(self._data)'
p490
sI397
S''
ssg87
S'(self=<pymysql.connections.MysqlPacket object>)'
p491
sg89
S'check_error'
p492
sa(dp493
g66
S'/Users/Brandon/anaconda/lib/python2.7/site-packages/pymysql/err.py'
p494
sg68
(dp495
S'errorclass'
p496
S"<class 'pymysql.err.InternalError'>"
p497
sS'errno'
p498
S'1050'
p499
sS'errval'
p500
S'u"Table \'data_source\' already exists"'
p501
ssg74
I107
sg75
(dp502
I98
S'def raise_mysql_exception(data):'
p503
sI99
S"    errno = struct.unpack('<h', data[1:3])[0]"
p504
sI100
S'    is_41 = data[3:4] == b"#"'
p505
sI101
S'    if is_41:'
p506
sI102
S'        # client protocol 4.1'
p507
sI103
S"        errval = data[9:].decode('utf-8', 'replace')"
p508
sI104
S'    else:'
p509
sI105
S"        errval = data[3:].decode('utf-8', 'replace')"
p510
sI106
S'    errorclass = error_map.get(errno, InternalError)'
p511
sI107
S'    raise errorclass(errno, errval)'
p512
ssg87
S'(data="\\xff\\x1a\\x04#42S01Table \'data_source\' already exists")'
p513
sg89
S'raise_mysql_exception'
p514
sasS'pyver'
p515
S'Python 2.7.10: /Users/Brandon/anaconda/bin/python (prefix: /Users/Brandon/anaconda)'
p516
sS'session'
p517
g61
(S's\x1a\x00\x00\x00<div><table></table></div>'
tRp518
sS'etype'
p519
S"<class 'pymysql.err.InternalError'>"
p520
sS'date'
p521
S'Mon May  8 20:14:54 2017'
p522
sS'response'
p523
g61
(S's\xc9>\x00\x00<div><table><tr><td style="font-weight:bold;vertical-align:top;">body</td><td style="vertical-align:top;">:</td><td><div>&lt;cStringIO.StringO object at 0x1050a4a40&gt;</div></td></tr><tr><td style="font-weight:bold;vertical-align:top;">cookies</td><td style="vertical-align:top;">:</td><td><div><table><tr><td style="font-weight:bold;vertical-align:top;">session_id_ipos</td><td style="vertical-align:top;">:</td><td><div>127.0.0.1-270d9a01-ba5d-4738-adf1-afdb291a1cff<table><tr><td style="font-weight:bold;vertical-align:top;">comment</td><td style="vertical-align:top;">:</td><td><div></div></td></tr><tr><td style="font-weight:bold;vertical-align:top;">domain</td><td style="vertical-align:top;">:</td><td><div></div></td></tr><tr><td style="font-weight:bold;vertical-align:top;">expires</td><td style="vertical-align:top;">:</td><td><div></div></td></tr><tr><td style="font-weight:bold;vertical-align:top;">httponly</td><td style="vertical-align:top;">:</td><td><div></div></td></tr><tr><td style="font-weight:bold;vertical-align:top;">max-age</td><td style="vertical-align:top;">:</td><td><div></div></td></tr><tr><td style="font-weight:bold;vertical-align:top;">path</td><td style="vertical-align:top;">:</td><td><div>/</div></td></tr><tr><td style="font-weight:bold;vertical-align:top;">secure</td><td style="vertical-align:top;">:</td><td><div></div></td></tr><tr><td style="font-weight:bold;vertical-align:top;">version</td><td style="vertical-align:top;">:</td><td><div></div></td></tr></table></div></td></tr></table></div></td></tr><tr><td style="font-weight:bold;vertical-align:top;">delimiters</td><td style="vertical-align:top;">:</td><td><div><table><tr><td><div>{{</div></td></tr><tr><td><div>}}</div></td></tr></table></div></td></tr><tr><td style="font-weight:bold;vertical-align:top;">files</td><td style="vertical-align:top;">:</td><td><div><table></table></div></td></tr><tr><td style="font-weight:bold;vertical-align:top;">flash</td><td style="vertical-align:top;">:</td><td><div></div></td></tr><tr><td style="font-weight:bold;vertical-align:top;">form_label_separator</td><td style="vertical-align:top;">:</td><td><div>: </div></td></tr><tr><td style="font-weight:bold;vertical-align:top;">formstyle</td><td style="vertical-align:top;">:</td><td><div>table3cols</div></td></tr><tr><td style="font-weight:bold;vertical-align:top;">generic_patterns</td><td style="vertical-align:top;">:</td><td><div><table><tr><td><div>*</div></td></tr></table></div></td></tr><tr><td style="font-weight:bold;vertical-align:top;">google_analytics_id</td><td style="vertical-align:top;">:</td><td><div>None</div></td></tr><tr><td style="font-weight:bold;vertical-align:top;">headers</td><td style="vertical-align:top;">:</td><td><div><table><tr><td style="font-weight:bold;vertical-align:top;">X-Powered-By</td><td style="vertical-align:top;">:</td><td><div>web2py</div></td></tr></table></div></td></tr><tr><td style="font-weight:bold;vertical-align:top;">logo</td><td style="vertical-align:top;">:</td><td><div><a class="navbar-brand" href="http://www.web2py.com/" id="web2py-logo"><b>web<span>2</span>py</b>&trade;&nbsp;</a></div></td></tr><tr><td style="font-weight:bold;vertical-align:top;">menu</td><td style="vertical-align:top;">:</td><td><div><table><tr><td><div><table><tr><td><div>Home</div></td></tr><tr><td><div>False</div></td></tr><tr><td><div>/</div></td></tr><tr><td><div><table></table></div></td></tr></table></div></td></tr><tr><td><div><table><tr><td><div>My Sites</div></td></tr><tr><td><div>False</div></td></tr><tr><td><div>/admin/site</div></td></tr></table></div></td></tr><tr><td><div><table><tr><td><div>This App</div></td></tr><tr><td><div>False</div></td></tr><tr><td><div>#</div></td></tr><tr><td><div><table><tr><td><div><table><tr><td><div>Design</div></td></tr><tr><td><div>False</div></td></tr><tr><td><div>/admin/design/ipos</div></td></tr></table></div></td></tr><tr><td><div><li class="divider"></li></div></td></tr><tr><td><div><table><tr><td><div>Controller</div></td></tr><tr><td><div>False</div></td></tr><tr><td><div>/admin/edit/ipos/controllers/default.py</div></td></tr></table></div></td></tr><tr><td><div><table><tr><td><div>View</div></td></tr><tr><td><div>False</div></td></tr><tr><td><div>/admin/edit/ipos/views/default/add_company.html</div></td></tr></table></div></td></tr><tr><td><div><table><tr><td><div>DB Model</div></td></tr><tr><td><div>False</div></td></tr><tr><td><div>/admin/edit/ipos/models/db.py</div></td></tr></table></div></td></tr><tr><td><div><table><tr><td><div>Menu Model</div></td></tr><tr><td><div>False</div></td></tr><tr><td><div>/admin/edit/ipos/models/menu.py</div></td></tr></table></div></td></tr><tr><td><div><table><tr><td><div>Config.ini</div></td></tr><tr><td><div>False</div></td></tr><tr><td><div>/admin/edit/ipos/private/appconfig.ini</div></td></tr></table></div></td></tr><tr><td><div><table><tr><td><div>Layout</div></td></tr><tr><td><div>False</div></td></tr><tr><td><div>/admin/edit/ipos/views/layout.html</div></td></tr></table></div></td></tr><tr><td><div><table><tr><td><div>Stylesheet</div></td></tr><tr><td><div>False</div></td></tr><tr><td><div>/admin/edit/ipos/static/css/web2py-bootstrap3.css</div></td></tr></table></div></td></tr><tr><td><div><table><tr><td><div>Database</div></td></tr><tr><td><div>False</div></td></tr><tr><td><div>/appadmin</div></td></tr></table></div></td></tr><tr><td><div><table><tr><td><div>Errors</div></td></tr><tr><td><div>False</div></td></tr><tr><td><div>/admin/errors/ipos</div></td></tr></table></div></td></tr><tr><td><div><table><tr><td><div>About</div></td></tr><tr><td><div>False</div></td></tr><tr><td><div>/admin/about/ipos</div></td></tr></table></div></td></tr></table></div></td></tr></table></div></td></tr><tr><td><div><table><tr><td><div>web2py.com</div></td></tr><tr><td><div>False</div></td></tr><tr><td><div>#</div></td></tr><tr><td><div><table><tr><td><div><table><tr><td><div>Download</div></td></tr><tr><td><div>False</div></td></tr><tr><td><div>http://www.web2py.com/examples/default/download</div></td></tr></table></div></td></tr><tr><td><div><table><tr><td><div>Support</div></td></tr><tr><td><div>False</div></td></tr><tr><td><div>http://www.web2py.com/examples/default/support</div></td></tr></table></div></td></tr><tr><td><div><table><tr><td><div>Demo</div></td></tr><tr><td><div>False</div></td></tr><tr><td><div>http://web2py.com/demo_admin</div></td></tr></table></div></td></tr><tr><td><div><table><tr><td><div>Quick Examples</div></td></tr><tr><td><div>False</div></td></tr><tr><td><div>http://web2py.com/examples/default/examples</div></td></tr></table></div></td></tr><tr><td><div><table><tr><td><div>FAQ</div></td></tr><tr><td><div>False</div></td></tr><tr><td><div>http://web2py.com/AlterEgo</div></td></tr></table></div></td></tr><tr><td><div><table><tr><td><div>Videos</div></td></tr><tr><td><div>False</div></td></tr><tr><td><div>http://www.web2py.com/examples/default/videos/</div></td></tr></table></div></td></tr><tr><td><div><table><tr><td><div>Free Applications</div></td></tr><tr><td><div>False</div></td></tr><tr><td><div>http://web2py.com/appliances</div></td></tr></table></div></td></tr><tr><td><div><table><tr><td><div>Plugins</div></td></tr><tr><td><div>False</div></td></tr><tr><td><div>http://web2py.com/plugins</div></td></tr></table></div></td></tr><tr><td><div><table><tr><td><div>Recipes</div></td></tr><tr><td><div>False</div></td></tr><tr><td><div>http://web2pyslices.com/</div></td></tr></table></div></td></tr></table></div></td></tr></table></div></td></tr><tr><td><div><table><tr><td><div>Documentation</div></td></tr><tr><td><div>False</div></td></tr><tr><td><div>#</div></td></tr><tr><td><div><table><tr><td><div><table><tr><td><div>Online book</div></td></tr><tr><td><div>False</div></td></tr><tr><td><div>http://www.web2py.com/book</div></td></tr></table></div></td></tr><tr><td><div><li class="divider"></li></div></td></tr><tr><td><div><table><tr><td><div>Preface</div></td></tr><tr><td><div>False</div></td></tr><tr><td><div>http://www.web2py.com/book/default/chapter/00</div></td></tr></table></div></td></tr><tr><td><div><table><tr><td><div>Introduction</div></td></tr><tr><td><div>False</div></td></tr><tr><td><div>http://www.web2py.com/book/default/chapter/01</div></td></tr></table></div></td></tr><tr><td><div><table><tr><td><div>Python</div></td></tr><tr><td><div>False</div></td></tr><tr><td><div>http://www.web2py.com/book/default/chapter/02</div></td></tr></table></div></td></tr><tr><td><div><table><tr><td><div>Overview</div></td></tr><tr><td><div>False</div></td></tr><tr><td><div>http://www.web2py.com/book/default/chapter/03</div></td></tr></table></div></td></tr><tr><td><div><table><tr><td><div>The Core</div></td></tr><tr><td><div>False</div></td></tr><tr><td><div>http://www.web2py.com/book/default/chapter/04</div></td></tr></table></div></td></tr><tr><td><div><table><tr><td><div>The Views</div></td></tr><tr><td><div>False</div></td></tr><tr><td><div>http://www.web2py.com/book/default/chapter/05</div></td></tr></table></div></td></tr><tr><td><div><table><tr><td><div>Database</div></td></tr><tr><td><div>False</div></td></tr><tr><td><div>http://www.web2py.com/book/default/chapter/06</div></td></tr></table></div></td></tr><tr><td><div><table><tr><td><div>Forms and Validators</div></td></tr><tr><td><div>False</div></td></tr><tr><td><div>http://www.web2py.com/book/default/chapter/07</div></td></tr></table></div></td></tr><tr><td><div><table><tr><td><div>Email and SMS</div></td></tr><tr><td><div>False</div></td></tr><tr><td><div>http://www.web2py.com/book/default/chapter/08</div></td></tr></table></div></td></tr><tr><td><div><table><tr><td><div>Access Control</div></td></tr><tr><td><div>False</div></td></tr><tr><td><div>http://www.web2py.com/book/default/chapter/09</div></td></tr></table></div></td></tr><tr><td><div><table><tr><td><div>Services</div></td></tr><tr><td><div>False</div></td></tr><tr><td><div>http://www.web2py.com/book/default/chapter/10</div></td></tr></table></div></td></tr><tr><td><div><table><tr><td><div>Ajax Recipes</div></td></tr><tr><td><div>False</div></td></tr><tr><td><div>http://www.web2py.com/book/default/chapter/11</div></td></tr></table></div></td></tr><tr><td><div><table><tr><td><div>Components and Plugins</div></td></tr><tr><td><div>False</div></td></tr><tr><td><div>http://www.web2py.com/book/default/chapter/12</div></td></tr></table></div></td></tr><tr><td><div><table><tr><td><div>Deployment Recipes</div></td></tr><tr><td><div>False</div></td></tr><tr><td><div>http://www.web2py.com/book/default/chapter/13</div></td></tr></table></div></td></tr><tr><td><div><table><tr><td><div>Other Recipes</div></td></tr><tr><td><div>False</div></td></tr><tr><td><div>http://www.web2py.com/book/default/chapter/14</div></td></tr></table></div></td></tr><tr><td><div><table><tr><td><div>Helping web2py</div></td></tr><tr><td><div>False</div></td></tr><tr><td><div>http://www.web2py.com/book/default/chapter/15</div></td></tr></table></div></td></tr><tr><td><div><table><tr><td><div>Buy web2py\'s book</div></td></tr><tr><td><div>False</div></td></tr><tr><td><div>http://stores.lulu.com/web2py</div></td></tr></table></div></td></tr></table></div></td></tr></table></div></td></tr><tr><td><div><table><tr><td><div>Community</div></td></tr><tr><td><div>False</div></td></tr><tr><td><div>None</div></td></tr><tr><td><div><table><tr><td><div><table><tr><td><div>Groups</div></td></tr><tr><td><div>False</div></td></tr><tr><td><div>http://www.web2py.com/examples/default/usergroups</div></td></tr></table></div></td></tr><tr><td><div><table><tr><td><div>Twitter</div></td></tr><tr><td><div>False</div></td></tr><tr><td><div>http://twitter.com/web2py</div></td></tr></table></div></td></tr><tr><td><div><table><tr><td><div>Live Chat</div></td></tr><tr><td><div>False</div></td></tr><tr><td><div>http://webchat.freenode.net/?channels=web2py</div></td></tr></table></div></td></tr></table></div></td></tr></table></div></td></tr></table></div></td></tr><tr><td style="font-weight:bold;vertical-align:top;">meta</td><td style="vertical-align:top;">:</td><td><div><table><tr><td style="font-weight:bold;vertical-align:top;">author</td><td style="vertical-align:top;">:</td><td><div>Your Name &lt;you@example.com&gt;</div></td></tr><tr><td style="font-weight:bold;vertical-align:top;">description</td><td style="vertical-align:top;">:</td><td><div>a cool new app</div></td></tr><tr><td style="font-weight:bold;vertical-align:top;">generator</td><td style="vertical-align:top;">:</td><td><div>Web2py Web Framework</div></td></tr><tr><td style="font-weight:bold;vertical-align:top;">keywords</td><td style="vertical-align:top;">:</td><td><div><table><tr><td><div>web2py</div></td></tr><tr><td><div>python</div></td></tr><tr><td><div>framework</div></td></tr></table></div></td></tr></table></div></td></tr><tr><td style="font-weight:bold;vertical-align:top;">models_to_run</td><td style="vertical-align:top;">:</td><td><div><table><tr><td><div>^\\w+\\.py$</div></td></tr><tr><td><div>^default/\\w+\\.py$</div></td></tr><tr><td><div>^default/add_company/\\w+\\.py$</div></td></tr></table></div></td></tr><tr><td style="font-weight:bold;vertical-align:top;">postprocessing</td><td style="vertical-align:top;">:</td><td><div><table></table></div></td></tr><tr><td style="font-weight:bold;vertical-align:top;">session_client</td><td style="vertical-align:top;">:</td><td><div>127.0.0.1</div></td></tr><tr><td style="font-weight:bold;vertical-align:top;">session_cookie_compression_level</td><td style="vertical-align:top;">:</td><td><div>None</div></td></tr><tr><td style="font-weight:bold;vertical-align:top;">session_cookie_expires</td><td style="vertical-align:top;">:</td><td><div>None</div></td></tr><tr><td style="font-weight:bold;vertical-align:top;">session_data_name</td><td style="vertical-align:top;">:</td><td><div>session_data_ipos</div></td></tr><tr><td style="font-weight:bold;vertical-align:top;">session_file</td><td style="vertical-align:top;">:</td><td><div>&lt;open file &#x27;/Users/Brandon/Develop/ipo_web2py/applications/ipos/sessions/0a3/1e0/127.0.0.1-270d9a01-ba5d-4738-adf1-afdb291a1cff&#x27;, mode &#x27;rb+&#x27; at 0x10f2919c0&gt;</div></td></tr><tr><td style="font-weight:bold;vertical-align:top;">session_filename</td><td style="vertical-align:top;">:</td><td><div>/Users/Brandon/Develop/ipo_web2py/applications/ipos/sessions/127.0.0.1-270d9a01-ba5d-4738-adf1-afdb291a1cff</div></td></tr><tr><td style="font-weight:bold;vertical-align:top;">session_hash</td><td style="vertical-align:top;">:</td><td><div>370f16cf3bbd256f4a63d104b29e7168</div></td></tr><tr><td style="font-weight:bold;vertical-align:top;">session_id</td><td style="vertical-align:top;">:</td><td><div>127.0.0.1-270d9a01-ba5d-4738-adf1-afdb291a1cff</div></td></tr><tr><td style="font-weight:bold;vertical-align:top;">session_id_name</td><td style="vertical-align:top;">:</td><td><div>session_id_ipos</div></td></tr><tr><td style="font-weight:bold;vertical-align:top;">session_locked</td><td style="vertical-align:top;">:</td><td><div>True</div></td></tr><tr><td style="font-weight:bold;vertical-align:top;">session_masterapp</td><td style="vertical-align:top;">:</td><td><div>ipos</div></td></tr><tr><td style="font-weight:bold;vertical-align:top;">session_new</td><td style="vertical-align:top;">:</td><td><div>False</div></td></tr><tr><td style="font-weight:bold;vertical-align:top;">session_storage_type</td><td style="vertical-align:top;">:</td><td><div>file</div></td></tr><tr><td style="font-weight:bold;vertical-align:top;">status</td><td style="vertical-align:top;">:</td><td><div>200</div></td></tr><tr><td style="font-weight:bold;vertical-align:top;">subtitle</td><td style="vertical-align:top;">:</td><td><div></div></td></tr><tr><td style="font-weight:bold;vertical-align:top;">title</td><td style="vertical-align:top;">:</td><td><div>Ipos</div></td></tr><tr><td style="font-weight:bold;vertical-align:top;">view</td><td style="vertical-align:top;">:</td><td><div>default/add_company.html</div></td></tr></table></div>'
tRp524
sS'locals'
p525
(dp526
S'errorclass'
p527
S"<class 'pymysql.err.InternalError'>"
p528
sS'errno'
p529
S'1050'
p530
sS'is_41'
p531
S'True'
p532
sS'errval'
p533
S'u"Table \'data_source\' already exists"'
p534
sS'data'
p535
S'"\\xff\\x1a\\x04#42S01Table \'data_source\' already exists"'
p536
sssS'traceback'
p537
S'Traceback (most recent call last):\n  File "/Users/Brandon/Develop/ipo_web2py/gluon/restricted.py", line 227, in restricted\n    exec ccode in environment\n  File "/Users/Brandon/Develop/ipo_web2py/applications/ipos/controllers/default.py", line 87, in <module>\n  File "/Users/Brandon/Develop/ipo_web2py/gluon/globals.py", line 417, in <lambda>\n    self._caller = lambda f: f()\n  File "/Users/Brandon/Develop/ipo_web2py/applications/ipos/controllers/default.py", line 56, in add_company\n    form=SQLFORM(db.company_info).process()\n  File "/Users/Brandon/Develop/ipo_web2py/gluon/packages/dal/pydal/base.py", line 920, in __getattr__\n    return self.lazy_define_table(tablename, *fields, **args)\n  File "/Users/Brandon/Develop/ipo_web2py/gluon/packages/dal/pydal/base.py", line 855, in lazy_define_table\n    table._create_references()\n  File "/Users/Brandon/Develop/ipo_web2py/gluon/packages/dal/pydal/objects.py", line 440, in _create_references\n    rtable = db[rtablename]\n  File "/Users/Brandon/Develop/ipo_web2py/gluon/packages/dal/pydal/base.py", line 914, in __getitem__\n    return self.__getattr__(str(key))\n  File "/Users/Brandon/Develop/ipo_web2py/gluon/packages/dal/pydal/base.py", line 920, in __getattr__\n    return self.lazy_define_table(tablename, *fields, **args)\n  File "/Users/Brandon/Develop/ipo_web2py/gluon/packages/dal/pydal/base.py", line 873, in lazy_define_table\n    polymodel=polymodel)\n  File "/Users/Brandon/Develop/ipo_web2py/gluon/packages/dal/pydal/adapters/base.py", line 482, in create_table\n    self.create_sequence_and_triggers(query, table)\n  File "/Users/Brandon/Develop/ipo_web2py/gluon/packages/dal/pydal/adapters/base.py", line 1369, in create_sequence_and_triggers\n    self.execute(query)\n  File "/Users/Brandon/Develop/ipo_web2py/gluon/packages/dal/pydal/adapters/base.py", line 1388, in execute\n    return self.log_execute(*a, **b)\n  File "/Users/Brandon/Develop/ipo_web2py/gluon/packages/dal/pydal/adapters/base.py", line 1382, in log_execute\n    ret = self.get_cursor().execute(command, *a[1:], **b)\n  File "/Users/Brandon/anaconda/lib/python2.7/site-packages/pymysql/cursors.py", line 166, in execute\n    result = self._query(query)\n  File "/Users/Brandon/anaconda/lib/python2.7/site-packages/pymysql/cursors.py", line 322, in _query\n    conn.query(q)\n  File "/Users/Brandon/anaconda/lib/python2.7/site-packages/pymysql/connections.py", line 856, in query\n    self._affected_rows = self._read_query_result(unbuffered=unbuffered)\n  File "/Users/Brandon/anaconda/lib/python2.7/site-packages/pymysql/connections.py", line 1057, in _read_query_result\n    result.read()\n  File "/Users/Brandon/anaconda/lib/python2.7/site-packages/pymysql/connections.py", line 1340, in read\n    first_packet = self.connection._read_packet()\n  File "/Users/Brandon/anaconda/lib/python2.7/site-packages/pymysql/connections.py", line 1014, in _read_packet\n    packet.check_error()\n  File "/Users/Brandon/anaconda/lib/python2.7/site-packages/pymysql/connections.py", line 393, in check_error\n    err.raise_mysql_exception(self._data)\n  File "/Users/Brandon/anaconda/lib/python2.7/site-packages/pymysql/err.py", line 107, in raise_mysql_exception\n    raise errorclass(errno, errval)\nInternalError: (1050, u"Table \'data_source\' already exists")\n'
p538
s.